Component: ARM Compiler 5.06 update 7 (build 960) Tool: armlink [4d3601]

==============================================================================

Section Cross References

    startup_stm32f103xe.o(RESET) refers to startup_stm32f103xe.o(STACK) for __initial_sp
    startup_stm32f103xe.o(RESET) refers to startup_stm32f103xe.o(.text) for Reset_Handler
    startup_stm32f103xe.o(RESET) refers to stm32f1xx_it.o(i.NMI_Handler) for NMI_Handler
    startup_stm32f103xe.o(RESET) refers to stm32f1xx_it.o(i.HardFault_Handler) for HardFault_Handler
    startup_stm32f103xe.o(RESET) refers to stm32f1xx_it.o(i.MemManage_Handler) for MemManage_Handler
    startup_stm32f103xe.o(RESET) refers to stm32f1xx_it.o(i.BusFault_Handler) for BusFault_Handler
    startup_stm32f103xe.o(RESET) refers to stm32f1xx_it.o(i.UsageFault_Handler) for UsageFault_Handler
    startup_stm32f103xe.o(RESET) refers to hal_cm3.o(.emb_text) for SVC_Handler
    startup_stm32f103xe.o(RESET) refers to stm32f1xx_it.o(i.DebugMon_Handler) for DebugMon_Handler
    startup_stm32f103xe.o(RESET) refers to stm32f1xx_it.o(i.USART1_IRQHandler) for USART1_IRQHandler
    startup_stm32f103xe.o(RESET) refers to stm32f1xx_it.o(i.USART3_IRQHandler) for USART3_IRQHandler
    startup_stm32f103xe.o(.text) refers to system_stm32f1xx.o(i.SystemInit) for SystemInit
    startup_stm32f103xe.o(.text) refers to entry.o(.ARM.Collect$$$$00000000) for __main
    main.o(i.MX_GPIO_Init) refers to stm32f1xx_hal_gpio.o(i.HAL_GPIO_WritePin) for HAL_GPIO_WritePin
    main.o(i.MX_GPIO_Init) refers to stm32f1xx_hal_gpio.o(i.HAL_GPIO_Init) for HAL_GPIO_Init
    main.o(i.MX_TIM4_Init) refers to stm32f1xx_hal_tim.o(i.HAL_TIM_Base_Init) for HAL_TIM_Base_Init
    main.o(i.MX_TIM4_Init) refers to stm32f1xx_hal_tim.o(i.HAL_TIM_ConfigClockSource) for HAL_TIM_ConfigClockSource
    main.o(i.MX_TIM4_Init) refers to stm32f1xx_hal_tim_ex.o(i.HAL_TIMEx_MasterConfigSynchronization) for HAL_TIMEx_MasterConfigSynchronization
    main.o(i.MX_TIM4_Init) refers to main.o(.bss) for .bss
    main.o(i.SystemClock_Config) refers to memseta.o(.text) for __aeabi_memclr4
    main.o(i.SystemClock_Config) refers to stm32f1xx_hal_rcc.o(i.HAL_RCC_OscConfig) for HAL_RCC_OscConfig
    main.o(i.SystemClock_Config) refers to stm32f1xx_hal_rcc.o(i.HAL_RCC_ClockConfig) for HAL_RCC_ClockConfig
    main.o(i.fputc) refers to stm32f1xx_hal_uart.o(i.HAL_UART_Transmit) for HAL_UART_Transmit
    main.o(i.fputc) refers to main.o(.bss) for .bss
    main.o(i.main) refers to stm32f1xx_hal.o(i.HAL_Init) for HAL_Init
    main.o(i.main) refers to main.o(i.SystemClock_Config) for SystemClock_Config
    main.o(i.main) refers to main.o(i.MX_GPIO_Init) for MX_GPIO_Init
    main.o(i.main) refers to main.o(i.MX_TIM4_Init) for MX_TIM4_Init
    main.o(i.main) refers to stm32f1xx_hal_uart.o(i.HAL_UART_Init) for HAL_UART_Init
    main.o(i.main) refers to elog.o(i.elog_init) for elog_init
    main.o(i.main) refers to elog.o(i.elog_set_fmt) for elog_set_fmt
    main.o(i.main) refers to elog.o(i.elog_start) for elog_start
    main.o(i.main) refers to tlsf.o(i.dm_init) for dm_init
    main.o(i.main) refers to vmsgexec.o(i.msgexec_init) for msgexec_init
    main.o(i.main) refers to vmsgexec.o(i.vwm_timer_init) for vwm_timer_init
    main.o(i.main) refers to rt_cmsis.o(i.osKernelStart) for osKernelStart
    main.o(i.main) refers to app.o(i.app_init) for app_init
    main.o(i.main) refers to elog.o(i.elog_output) for elog_output
    main.o(i.main) refers to vmsgexec.o(i.msgexec_exec) for msgexec_exec
    main.o(i.main) refers to main.o(.bss) for .bss
    main.o(i.main) refers to main.o(.constdata) for .constdata
    stm32f1xx_it.o(i.USART1_IRQHandler) refers to stm32f1xx_hal_uart.o(i.HAL_UART_IRQHandler) for HAL_UART_IRQHandler
    stm32f1xx_it.o(i.USART1_IRQHandler) refers to main.o(.bss) for huart1
    stm32f1xx_it.o(i.USART3_IRQHandler) refers to stm32f1xx_hal_uart.o(i.HAL_UART_IRQHandler) for HAL_UART_IRQHandler
    stm32f1xx_it.o(i.USART3_IRQHandler) refers to main.o(.bss) for huart3
    stm32f1xx_hal_msp.o(i.HAL_MspInit) refers to stm32f1xx_hal_cortex.o(i.HAL_NVIC_SetPriorityGrouping) for HAL_NVIC_SetPriorityGrouping
    stm32f1xx_hal_msp.o(i.HAL_MspInit) refers to stm32f1xx_hal_cortex.o(i.HAL_NVIC_SetPriority) for HAL_NVIC_SetPriority
    stm32f1xx_hal_msp.o(i.HAL_UART_MspDeInit) refers to stm32f1xx_hal_gpio.o(i.HAL_GPIO_DeInit) for HAL_GPIO_DeInit
    stm32f1xx_hal_msp.o(i.HAL_UART_MspDeInit) refers to stm32f1xx_hal_cortex.o(i.HAL_NVIC_DisableIRQ) for HAL_NVIC_DisableIRQ
    stm32f1xx_hal_msp.o(i.HAL_UART_MspInit) refers to stm32f1xx_hal_gpio.o(i.HAL_GPIO_Init) for HAL_GPIO_Init
    stm32f1xx_hal_msp.o(i.HAL_UART_MspInit) refers to stm32f1xx_hal_cortex.o(i.HAL_NVIC_SetPriority) for HAL_NVIC_SetPriority
    stm32f1xx_hal_msp.o(i.HAL_UART_MspInit) refers to stm32f1xx_hal_cortex.o(i.HAL_NVIC_EnableIRQ) for HAL_NVIC_EnableIRQ
    stm32f1xx_hal_tim.o(i.HAL_TIM_Base_DeInit) refers to stm32f1xx_hal_msp.o(i.HAL_TIM_Base_MspDeInit) for HAL_TIM_Base_MspDeInit
    stm32f1xx_hal_tim.o(i.HAL_TIM_Base_Init) refers to stm32f1xx_hal_msp.o(i.HAL_TIM_Base_MspInit) for HAL_TIM_Base_MspInit
    stm32f1xx_hal_tim.o(i.HAL_TIM_Base_Init) refers to stm32f1xx_hal_tim.o(i.TIM_Base_SetConfig) for TIM_Base_SetConfig
    stm32f1xx_hal_tim.o(i.HAL_TIM_Base_Start_DMA) refers to stm32f1xx_hal_dma.o(i.HAL_DMA_Start_IT) for HAL_DMA_Start_IT
    stm32f1xx_hal_tim.o(i.HAL_TIM_Base_Start_DMA) refers to stm32f1xx_hal_tim.o(i.TIM_DMAPeriodElapsedCplt) for TIM_DMAPeriodElapsedCplt
    stm32f1xx_hal_tim.o(i.HAL_TIM_Base_Start_DMA) refers to stm32f1xx_hal_tim.o(i.TIM_DMAPeriodElapsedHalfCplt) for TIM_DMAPeriodElapsedHalfCplt
    stm32f1xx_hal_tim.o(i.HAL_TIM_Base_Start_DMA) refers to stm32f1xx_hal_tim.o(i.TIM_DMAError) for TIM_DMAError
    stm32f1xx_hal_tim.o(i.HAL_TIM_Base_Stop_DMA) refers to stm32f1xx_hal_dma.o(i.HAL_DMA_Abort_IT) for HAL_DMA_Abort_IT
    stm32f1xx_hal_tim.o(i.HAL_TIM_ConfigClockSource) refers to stm32f1xx_hal_tim.o(i.TIM_ETR_SetConfig) for TIM_ETR_SetConfig
    stm32f1xx_hal_tim.o(i.HAL_TIM_ConfigClockSource) refers to stm32f1xx_hal_tim.o(i.TIM_TI1_ConfigInputStage) for TIM_TI1_ConfigInputStage
    stm32f1xx_hal_tim.o(i.HAL_TIM_ConfigClockSource) refers to stm32f1xx_hal_tim.o(i.TIM_TI2_ConfigInputStage) for TIM_TI2_ConfigInputStage
    stm32f1xx_hal_tim.o(i.HAL_TIM_ConfigClockSource) refers to stm32f1xx_hal_tim.o(i.TIM_ITRx_SetConfig) for TIM_ITRx_SetConfig
    stm32f1xx_hal_tim.o(i.HAL_TIM_ConfigOCrefClear) refers to stm32f1xx_hal_tim.o(i.TIM_ETR_SetConfig) for TIM_ETR_SetConfig
    stm32f1xx_hal_tim.o(i.HAL_TIM_DMABurst_MultiReadStart) refers to stm32f1xx_hal_dma.o(i.HAL_DMA_Start_IT) for HAL_DMA_Start_IT
    stm32f1xx_hal_tim.o(i.HAL_TIM_DMABurst_MultiReadStart) refers to stm32f1xx_hal_tim.o(i.TIM_DMAError) for TIM_DMAError
    stm32f1xx_hal_tim.o(i.HAL_TIM_DMABurst_MultiReadStart) refers to stm32f1xx_hal_tim.o(i.TIM_DMACaptureCplt) for TIM_DMACaptureCplt
    stm32f1xx_hal_tim.o(i.HAL_TIM_DMABurst_MultiReadStart) refers to stm32f1xx_hal_tim.o(i.TIM_DMACaptureHalfCplt) for TIM_DMACaptureHalfCplt
    stm32f1xx_hal_tim.o(i.HAL_TIM_DMABurst_MultiReadStart) refers to stm32f1xx_hal_tim.o(i.TIM_DMAPeriodElapsedCplt) for TIM_DMAPeriodElapsedCplt
    stm32f1xx_hal_tim.o(i.HAL_TIM_DMABurst_MultiReadStart) refers to stm32f1xx_hal_tim.o(i.TIM_DMAPeriodElapsedHalfCplt) for TIM_DMAPeriodElapsedHalfCplt
    stm32f1xx_hal_tim.o(i.HAL_TIM_DMABurst_MultiReadStart) refers to stm32f1xx_hal_tim_ex.o(i.TIMEx_DMACommutationCplt) for TIMEx_DMACommutationCplt
    stm32f1xx_hal_tim.o(i.HAL_TIM_DMABurst_MultiReadStart) refers to stm32f1xx_hal_tim_ex.o(i.TIMEx_DMACommutationHalfCplt) for TIMEx_DMACommutationHalfCplt
    stm32f1xx_hal_tim.o(i.HAL_TIM_DMABurst_MultiReadStart) refers to stm32f1xx_hal_tim.o(i.TIM_DMATriggerCplt) for TIM_DMATriggerCplt
    stm32f1xx_hal_tim.o(i.HAL_TIM_DMABurst_MultiReadStart) refers to stm32f1xx_hal_tim.o(i.TIM_DMATriggerHalfCplt) for TIM_DMATriggerHalfCplt
    stm32f1xx_hal_tim.o(i.HAL_TIM_DMABurst_MultiWriteStart) refers to stm32f1xx_hal_dma.o(i.HAL_DMA_Start_IT) for HAL_DMA_Start_IT
    stm32f1xx_hal_tim.o(i.HAL_TIM_DMABurst_MultiWriteStart) refers to stm32f1xx_hal_tim.o(i.TIM_DMAError) for TIM_DMAError
    stm32f1xx_hal_tim.o(i.HAL_TIM_DMABurst_MultiWriteStart) refers to stm32f1xx_hal_tim.o(i.TIM_DMADelayPulseCplt) for TIM_DMADelayPulseCplt
    stm32f1xx_hal_tim.o(i.HAL_TIM_DMABurst_MultiWriteStart) refers to stm32f1xx_hal_tim.o(i.TIM_DMADelayPulseHalfCplt) for TIM_DMADelayPulseHalfCplt
    stm32f1xx_hal_tim.o(i.HAL_TIM_DMABurst_MultiWriteStart) refers to stm32f1xx_hal_tim.o(i.TIM_DMAPeriodElapsedCplt) for TIM_DMAPeriodElapsedCplt
    stm32f1xx_hal_tim.o(i.HAL_TIM_DMABurst_MultiWriteStart) refers to stm32f1xx_hal_tim.o(i.TIM_DMAPeriodElapsedHalfCplt) for TIM_DMAPeriodElapsedHalfCplt
    stm32f1xx_hal_tim.o(i.HAL_TIM_DMABurst_MultiWriteStart) refers to stm32f1xx_hal_tim_ex.o(i.TIMEx_DMACommutationCplt) for TIMEx_DMACommutationCplt
    stm32f1xx_hal_tim.o(i.HAL_TIM_DMABurst_MultiWriteStart) refers to stm32f1xx_hal_tim_ex.o(i.TIMEx_DMACommutationHalfCplt) for TIMEx_DMACommutationHalfCplt
    stm32f1xx_hal_tim.o(i.HAL_TIM_DMABurst_MultiWriteStart) refers to stm32f1xx_hal_tim.o(i.TIM_DMATriggerCplt) for TIM_DMATriggerCplt
    stm32f1xx_hal_tim.o(i.HAL_TIM_DMABurst_MultiWriteStart) refers to stm32f1xx_hal_tim.o(i.TIM_DMATriggerHalfCplt) for TIM_DMATriggerHalfCplt
    stm32f1xx_hal_tim.o(i.HAL_TIM_DMABurst_ReadStart) refers to stm32f1xx_hal_tim.o(i.HAL_TIM_DMABurst_MultiReadStart) for HAL_TIM_DMABurst_MultiReadStart
    stm32f1xx_hal_tim.o(i.HAL_TIM_DMABurst_ReadStop) refers to stm32f1xx_hal_dma.o(i.HAL_DMA_Abort_IT) for HAL_DMA_Abort_IT
    stm32f1xx_hal_tim.o(i.HAL_TIM_DMABurst_WriteStart) refers to stm32f1xx_hal_tim.o(i.HAL_TIM_DMABurst_MultiWriteStart) for HAL_TIM_DMABurst_MultiWriteStart
    stm32f1xx_hal_tim.o(i.HAL_TIM_DMABurst_WriteStop) refers to stm32f1xx_hal_dma.o(i.HAL_DMA_Abort_IT) for HAL_DMA_Abort_IT
    stm32f1xx_hal_tim.o(i.HAL_TIM_Encoder_DeInit) refers to stm32f1xx_hal_tim.o(i.HAL_TIM_Encoder_MspDeInit) for HAL_TIM_Encoder_MspDeInit
    stm32f1xx_hal_tim.o(i.HAL_TIM_Encoder_Init) refers to stm32f1xx_hal_tim.o(i.HAL_TIM_Encoder_MspInit) for HAL_TIM_Encoder_MspInit
    stm32f1xx_hal_tim.o(i.HAL_TIM_Encoder_Init) refers to stm32f1xx_hal_tim.o(i.TIM_Base_SetConfig) for TIM_Base_SetConfig
    stm32f1xx_hal_tim.o(i.HAL_TIM_Encoder_Start) refers to stm32f1xx_hal_tim.o(i.TIM_CCxChannelCmd) for TIM_CCxChannelCmd
    stm32f1xx_hal_tim.o(i.HAL_TIM_Encoder_Start_DMA) refers to stm32f1xx_hal_dma.o(i.HAL_DMA_Start_IT) for HAL_DMA_Start_IT
    stm32f1xx_hal_tim.o(i.HAL_TIM_Encoder_Start_DMA) refers to stm32f1xx_hal_tim.o(i.TIM_CCxChannelCmd) for TIM_CCxChannelCmd
    stm32f1xx_hal_tim.o(i.HAL_TIM_Encoder_Start_DMA) refers to stm32f1xx_hal_tim.o(i.TIM_DMACaptureCplt) for TIM_DMACaptureCplt
    stm32f1xx_hal_tim.o(i.HAL_TIM_Encoder_Start_DMA) refers to stm32f1xx_hal_tim.o(i.TIM_DMACaptureHalfCplt) for TIM_DMACaptureHalfCplt
    stm32f1xx_hal_tim.o(i.HAL_TIM_Encoder_Start_DMA) refers to stm32f1xx_hal_tim.o(i.TIM_DMAError) for TIM_DMAError
    stm32f1xx_hal_tim.o(i.HAL_TIM_Encoder_Start_IT) refers to stm32f1xx_hal_tim.o(i.TIM_CCxChannelCmd) for TIM_CCxChannelCmd
    stm32f1xx_hal_tim.o(i.HAL_TIM_Encoder_Stop) refers to stm32f1xx_hal_tim.o(i.TIM_CCxChannelCmd) for TIM_CCxChannelCmd
    stm32f1xx_hal_tim.o(i.HAL_TIM_Encoder_Stop_DMA) refers to stm32f1xx_hal_tim.o(i.TIM_CCxChannelCmd) for TIM_CCxChannelCmd
    stm32f1xx_hal_tim.o(i.HAL_TIM_Encoder_Stop_DMA) refers to stm32f1xx_hal_dma.o(i.HAL_DMA_Abort_IT) for HAL_DMA_Abort_IT
    stm32f1xx_hal_tim.o(i.HAL_TIM_Encoder_Stop_IT) refers to stm32f1xx_hal_tim.o(i.TIM_CCxChannelCmd) for TIM_CCxChannelCmd
    stm32f1xx_hal_tim.o(i.HAL_TIM_IC_ConfigChannel) refers to stm32f1xx_hal_tim.o(i.TIM_TI1_SetConfig) for TIM_TI1_SetConfig
    stm32f1xx_hal_tim.o(i.HAL_TIM_IC_ConfigChannel) refers to stm32f1xx_hal_tim.o(i.TIM_TI2_SetConfig) for TIM_TI2_SetConfig
    stm32f1xx_hal_tim.o(i.HAL_TIM_IC_DeInit) refers to stm32f1xx_hal_tim.o(i.HAL_TIM_IC_MspDeInit) for HAL_TIM_IC_MspDeInit
    stm32f1xx_hal_tim.o(i.HAL_TIM_IC_Init) refers to stm32f1xx_hal_tim.o(i.HAL_TIM_IC_MspInit) for HAL_TIM_IC_MspInit
    stm32f1xx_hal_tim.o(i.HAL_TIM_IC_Init) refers to stm32f1xx_hal_tim.o(i.TIM_Base_SetConfig) for TIM_Base_SetConfig
    stm32f1xx_hal_tim.o(i.HAL_TIM_IC_Start) refers to stm32f1xx_hal_tim.o(i.TIM_CCxChannelCmd) for TIM_CCxChannelCmd
    stm32f1xx_hal_tim.o(i.HAL_TIM_IC_Start_DMA) refers to stm32f1xx_hal_tim.o(i.TIM_CCxChannelCmd) for TIM_CCxChannelCmd
    stm32f1xx_hal_tim.o(i.HAL_TIM_IC_Start_DMA) refers to stm32f1xx_hal_dma.o(i.HAL_DMA_Start_IT) for HAL_DMA_Start_IT
    stm32f1xx_hal_tim.o(i.HAL_TIM_IC_Start_DMA) refers to stm32f1xx_hal_tim.o(i.TIM_DMACaptureCplt) for TIM_DMACaptureCplt
    stm32f1xx_hal_tim.o(i.HAL_TIM_IC_Start_DMA) refers to stm32f1xx_hal_tim.o(i.TIM_DMACaptureHalfCplt) for TIM_DMACaptureHalfCplt
    stm32f1xx_hal_tim.o(i.HAL_TIM_IC_Start_DMA) refers to stm32f1xx_hal_tim.o(i.TIM_DMAError) for TIM_DMAError
    stm32f1xx_hal_tim.o(i.HAL_TIM_IC_Start_IT) refers to stm32f1xx_hal_tim.o(i.TIM_CCxChannelCmd) for TIM_CCxChannelCmd
    stm32f1xx_hal_tim.o(i.HAL_TIM_IC_Stop) refers to stm32f1xx_hal_tim.o(i.TIM_CCxChannelCmd) for TIM_CCxChannelCmd
    stm32f1xx_hal_tim.o(i.HAL_TIM_IC_Stop_DMA) refers to stm32f1xx_hal_tim.o(i.TIM_CCxChannelCmd) for TIM_CCxChannelCmd
    stm32f1xx_hal_tim.o(i.HAL_TIM_IC_Stop_DMA) refers to stm32f1xx_hal_dma.o(i.HAL_DMA_Abort_IT) for HAL_DMA_Abort_IT
    stm32f1xx_hal_tim.o(i.HAL_TIM_IC_Stop_IT) refers to stm32f1xx_hal_tim.o(i.TIM_CCxChannelCmd) for TIM_CCxChannelCmd
    stm32f1xx_hal_tim.o(i.HAL_TIM_IRQHandler) refers to stm32f1xx_hal_tim.o(i.HAL_TIM_IC_CaptureCallback) for HAL_TIM_IC_CaptureCallback
    stm32f1xx_hal_tim.o(i.HAL_TIM_IRQHandler) refers to stm32f1xx_hal_tim.o(i.HAL_TIM_OC_DelayElapsedCallback) for HAL_TIM_OC_DelayElapsedCallback
    stm32f1xx_hal_tim.o(i.HAL_TIM_IRQHandler) refers to stm32f1xx_hal_tim.o(i.HAL_TIM_PWM_PulseFinishedCallback) for HAL_TIM_PWM_PulseFinishedCallback
    stm32f1xx_hal_tim.o(i.HAL_TIM_IRQHandler) refers to stm32f1xx_hal_tim.o(i.HAL_TIM_PeriodElapsedCallback) for HAL_TIM_PeriodElapsedCallback
    stm32f1xx_hal_tim.o(i.HAL_TIM_IRQHandler) refers to stm32f1xx_hal_tim_ex.o(i.HAL_TIMEx_BreakCallback) for HAL_TIMEx_BreakCallback
    stm32f1xx_hal_tim.o(i.HAL_TIM_IRQHandler) refers to stm32f1xx_hal_tim.o(i.HAL_TIM_TriggerCallback) for HAL_TIM_TriggerCallback
    stm32f1xx_hal_tim.o(i.HAL_TIM_IRQHandler) refers to stm32f1xx_hal_tim_ex.o(i.HAL_TIMEx_CommutCallback) for HAL_TIMEx_CommutCallback
    stm32f1xx_hal_tim.o(i.HAL_TIM_OC_ConfigChannel) refers to stm32f1xx_hal_tim.o(i.TIM_OC1_SetConfig) for TIM_OC1_SetConfig
    stm32f1xx_hal_tim.o(i.HAL_TIM_OC_ConfigChannel) refers to stm32f1xx_hal_tim.o(i.TIM_OC2_SetConfig) for TIM_OC2_SetConfig
    stm32f1xx_hal_tim.o(i.HAL_TIM_OC_ConfigChannel) refers to stm32f1xx_hal_tim.o(i.TIM_OC3_SetConfig) for TIM_OC3_SetConfig
    stm32f1xx_hal_tim.o(i.HAL_TIM_OC_ConfigChannel) refers to stm32f1xx_hal_tim.o(i.TIM_OC4_SetConfig) for TIM_OC4_SetConfig
    stm32f1xx_hal_tim.o(i.HAL_TIM_OC_DeInit) refers to stm32f1xx_hal_tim.o(i.HAL_TIM_OC_MspDeInit) for HAL_TIM_OC_MspDeInit
    stm32f1xx_hal_tim.o(i.HAL_TIM_OC_Init) refers to stm32f1xx_hal_tim.o(i.HAL_TIM_OC_MspInit) for HAL_TIM_OC_MspInit
    stm32f1xx_hal_tim.o(i.HAL_TIM_OC_Init) refers to stm32f1xx_hal_tim.o(i.TIM_Base_SetConfig) for TIM_Base_SetConfig
    stm32f1xx_hal_tim.o(i.HAL_TIM_OC_Start) refers to stm32f1xx_hal_tim.o(i.TIM_CCxChannelCmd) for TIM_CCxChannelCmd
    stm32f1xx_hal_tim.o(i.HAL_TIM_OC_Start_DMA) refers to stm32f1xx_hal_dma.o(i.HAL_DMA_Start_IT) for HAL_DMA_Start_IT
    stm32f1xx_hal_tim.o(i.HAL_TIM_OC_Start_DMA) refers to stm32f1xx_hal_tim.o(i.TIM_CCxChannelCmd) for TIM_CCxChannelCmd
    stm32f1xx_hal_tim.o(i.HAL_TIM_OC_Start_DMA) refers to stm32f1xx_hal_tim.o(i.TIM_DMADelayPulseCplt) for TIM_DMADelayPulseCplt
    stm32f1xx_hal_tim.o(i.HAL_TIM_OC_Start_DMA) refers to stm32f1xx_hal_tim.o(i.TIM_DMADelayPulseHalfCplt) for TIM_DMADelayPulseHalfCplt
    stm32f1xx_hal_tim.o(i.HAL_TIM_OC_Start_DMA) refers to stm32f1xx_hal_tim.o(i.TIM_DMAError) for TIM_DMAError
    stm32f1xx_hal_tim.o(i.HAL_TIM_OC_Start_IT) refers to stm32f1xx_hal_tim.o(i.TIM_CCxChannelCmd) for TIM_CCxChannelCmd
    stm32f1xx_hal_tim.o(i.HAL_TIM_OC_Stop) refers to stm32f1xx_hal_tim.o(i.TIM_CCxChannelCmd) for TIM_CCxChannelCmd
    stm32f1xx_hal_tim.o(i.HAL_TIM_OC_Stop_DMA) refers to stm32f1xx_hal_dma.o(i.HAL_DMA_Abort_IT) for HAL_DMA_Abort_IT
    stm32f1xx_hal_tim.o(i.HAL_TIM_OC_Stop_DMA) refers to stm32f1xx_hal_tim.o(i.TIM_CCxChannelCmd) for TIM_CCxChannelCmd
    stm32f1xx_hal_tim.o(i.HAL_TIM_OC_Stop_IT) refers to stm32f1xx_hal_tim.o(i.TIM_CCxChannelCmd) for TIM_CCxChannelCmd
    stm32f1xx_hal_tim.o(i.HAL_TIM_OnePulse_ConfigChannel) refers to stm32f1xx_hal_tim.o(i.TIM_OC1_SetConfig) for TIM_OC1_SetConfig
    stm32f1xx_hal_tim.o(i.HAL_TIM_OnePulse_ConfigChannel) refers to stm32f1xx_hal_tim.o(i.TIM_OC2_SetConfig) for TIM_OC2_SetConfig
    stm32f1xx_hal_tim.o(i.HAL_TIM_OnePulse_ConfigChannel) refers to stm32f1xx_hal_tim.o(i.TIM_TI1_SetConfig) for TIM_TI1_SetConfig
    stm32f1xx_hal_tim.o(i.HAL_TIM_OnePulse_ConfigChannel) refers to stm32f1xx_hal_tim.o(i.TIM_TI2_SetConfig) for TIM_TI2_SetConfig
    stm32f1xx_hal_tim.o(i.HAL_TIM_OnePulse_DeInit) refers to stm32f1xx_hal_tim.o(i.HAL_TIM_OnePulse_MspDeInit) for HAL_TIM_OnePulse_MspDeInit
    stm32f1xx_hal_tim.o(i.HAL_TIM_OnePulse_Init) refers to stm32f1xx_hal_tim.o(i.HAL_TIM_OnePulse_MspInit) for HAL_TIM_OnePulse_MspInit
    stm32f1xx_hal_tim.o(i.HAL_TIM_OnePulse_Init) refers to stm32f1xx_hal_tim.o(i.TIM_Base_SetConfig) for TIM_Base_SetConfig
    stm32f1xx_hal_tim.o(i.HAL_TIM_OnePulse_Start) refers to stm32f1xx_hal_tim.o(i.TIM_CCxChannelCmd) for TIM_CCxChannelCmd
    stm32f1xx_hal_tim.o(i.HAL_TIM_OnePulse_Start_IT) refers to stm32f1xx_hal_tim.o(i.TIM_CCxChannelCmd) for TIM_CCxChannelCmd
    stm32f1xx_hal_tim.o(i.HAL_TIM_OnePulse_Stop) refers to stm32f1xx_hal_tim.o(i.TIM_CCxChannelCmd) for TIM_CCxChannelCmd
    stm32f1xx_hal_tim.o(i.HAL_TIM_OnePulse_Stop_IT) refers to stm32f1xx_hal_tim.o(i.TIM_CCxChannelCmd) for TIM_CCxChannelCmd
    stm32f1xx_hal_tim.o(i.HAL_TIM_PWM_ConfigChannel) refers to stm32f1xx_hal_tim.o(i.TIM_OC1_SetConfig) for TIM_OC1_SetConfig
    stm32f1xx_hal_tim.o(i.HAL_TIM_PWM_ConfigChannel) refers to stm32f1xx_hal_tim.o(i.TIM_OC2_SetConfig) for TIM_OC2_SetConfig
    stm32f1xx_hal_tim.o(i.HAL_TIM_PWM_ConfigChannel) refers to stm32f1xx_hal_tim.o(i.TIM_OC3_SetConfig) for TIM_OC3_SetConfig
    stm32f1xx_hal_tim.o(i.HAL_TIM_PWM_ConfigChannel) refers to stm32f1xx_hal_tim.o(i.TIM_OC4_SetConfig) for TIM_OC4_SetConfig
    stm32f1xx_hal_tim.o(i.HAL_TIM_PWM_DeInit) refers to stm32f1xx_hal_tim.o(i.HAL_TIM_PWM_MspDeInit) for HAL_TIM_PWM_MspDeInit
    stm32f1xx_hal_tim.o(i.HAL_TIM_PWM_Init) refers to stm32f1xx_hal_tim.o(i.HAL_TIM_PWM_MspInit) for HAL_TIM_PWM_MspInit
    stm32f1xx_hal_tim.o(i.HAL_TIM_PWM_Init) refers to stm32f1xx_hal_tim.o(i.TIM_Base_SetConfig) for TIM_Base_SetConfig
    stm32f1xx_hal_tim.o(i.HAL_TIM_PWM_Start) refers to stm32f1xx_hal_tim.o(i.TIM_CCxChannelCmd) for TIM_CCxChannelCmd
    stm32f1xx_hal_tim.o(i.HAL_TIM_PWM_Start_DMA) refers to stm32f1xx_hal_dma.o(i.HAL_DMA_Start_IT) for HAL_DMA_Start_IT
    stm32f1xx_hal_tim.o(i.HAL_TIM_PWM_Start_DMA) refers to stm32f1xx_hal_tim.o(i.TIM_CCxChannelCmd) for TIM_CCxChannelCmd
    stm32f1xx_hal_tim.o(i.HAL_TIM_PWM_Start_DMA) refers to stm32f1xx_hal_tim.o(i.TIM_DMADelayPulseCplt) for TIM_DMADelayPulseCplt
    stm32f1xx_hal_tim.o(i.HAL_TIM_PWM_Start_DMA) refers to stm32f1xx_hal_tim.o(i.TIM_DMADelayPulseHalfCplt) for TIM_DMADelayPulseHalfCplt
    stm32f1xx_hal_tim.o(i.HAL_TIM_PWM_Start_DMA) refers to stm32f1xx_hal_tim.o(i.TIM_DMAError) for TIM_DMAError
    stm32f1xx_hal_tim.o(i.HAL_TIM_PWM_Start_IT) refers to stm32f1xx_hal_tim.o(i.TIM_CCxChannelCmd) for TIM_CCxChannelCmd
    stm32f1xx_hal_tim.o(i.HAL_TIM_PWM_Stop) refers to stm32f1xx_hal_tim.o(i.TIM_CCxChannelCmd) for TIM_CCxChannelCmd
    stm32f1xx_hal_tim.o(i.HAL_TIM_PWM_Stop_DMA) refers to stm32f1xx_hal_dma.o(i.HAL_DMA_Abort_IT) for HAL_DMA_Abort_IT
    stm32f1xx_hal_tim.o(i.HAL_TIM_PWM_Stop_DMA) refers to stm32f1xx_hal_tim.o(i.TIM_CCxChannelCmd) for TIM_CCxChannelCmd
    stm32f1xx_hal_tim.o(i.HAL_TIM_PWM_Stop_IT) refers to stm32f1xx_hal_tim.o(i.TIM_CCxChannelCmd) for TIM_CCxChannelCmd
    stm32f1xx_hal_tim.o(i.HAL_TIM_SlaveConfigSynchro) refers to stm32f1xx_hal_tim.o(i.TIM_SlaveTimer_SetConfig) for TIM_SlaveTimer_SetConfig
    stm32f1xx_hal_tim.o(i.HAL_TIM_SlaveConfigSynchro_IT) refers to stm32f1xx_hal_tim.o(i.TIM_SlaveTimer_SetConfig) for TIM_SlaveTimer_SetConfig
    stm32f1xx_hal_tim.o(i.TIM_DMACaptureCplt) refers to stm32f1xx_hal_tim.o(i.HAL_TIM_IC_CaptureCallback) for HAL_TIM_IC_CaptureCallback
    stm32f1xx_hal_tim.o(i.TIM_DMACaptureHalfCplt) refers to stm32f1xx_hal_tim.o(i.HAL_TIM_IC_CaptureHalfCpltCallback) for HAL_TIM_IC_CaptureHalfCpltCallback
    stm32f1xx_hal_tim.o(i.TIM_DMADelayPulseCplt) refers to stm32f1xx_hal_tim.o(i.HAL_TIM_PWM_PulseFinishedCallback) for HAL_TIM_PWM_PulseFinishedCallback
    stm32f1xx_hal_tim.o(i.TIM_DMADelayPulseHalfCplt) refers to stm32f1xx_hal_tim.o(i.HAL_TIM_PWM_PulseFinishedHalfCpltCallback) for HAL_TIM_PWM_PulseFinishedHalfCpltCallback
    stm32f1xx_hal_tim.o(i.TIM_DMAError) refers to stm32f1xx_hal_tim.o(i.HAL_TIM_ErrorCallback) for HAL_TIM_ErrorCallback
    stm32f1xx_hal_tim.o(i.TIM_DMAPeriodElapsedCplt) refers to stm32f1xx_hal_tim.o(i.HAL_TIM_PeriodElapsedCallback) for HAL_TIM_PeriodElapsedCallback
    stm32f1xx_hal_tim.o(i.TIM_DMAPeriodElapsedHalfCplt) refers to stm32f1xx_hal_tim.o(i.HAL_TIM_PeriodElapsedHalfCpltCallback) for HAL_TIM_PeriodElapsedHalfCpltCallback
    stm32f1xx_hal_tim.o(i.TIM_DMATriggerCplt) refers to stm32f1xx_hal_tim.o(i.HAL_TIM_TriggerCallback) for HAL_TIM_TriggerCallback
    stm32f1xx_hal_tim.o(i.TIM_DMATriggerHalfCplt) refers to stm32f1xx_hal_tim.o(i.HAL_TIM_TriggerHalfCpltCallback) for HAL_TIM_TriggerHalfCpltCallback
    stm32f1xx_hal_tim.o(i.TIM_SlaveTimer_SetConfig) refers to stm32f1xx_hal_tim.o(i.TIM_ETR_SetConfig) for TIM_ETR_SetConfig
    stm32f1xx_hal_tim.o(i.TIM_SlaveTimer_SetConfig) refers to stm32f1xx_hal_tim.o(i.TIM_TI1_ConfigInputStage) for TIM_TI1_ConfigInputStage
    stm32f1xx_hal_tim.o(i.TIM_SlaveTimer_SetConfig) refers to stm32f1xx_hal_tim.o(i.TIM_TI2_ConfigInputStage) for TIM_TI2_ConfigInputStage
    stm32f1xx_hal_tim_ex.o(i.HAL_TIMEx_ConfigCommutEvent_DMA) refers to stm32f1xx_hal_tim_ex.o(i.TIMEx_DMACommutationCplt) for TIMEx_DMACommutationCplt
    stm32f1xx_hal_tim_ex.o(i.HAL_TIMEx_ConfigCommutEvent_DMA) refers to stm32f1xx_hal_tim_ex.o(i.TIMEx_DMACommutationHalfCplt) for TIMEx_DMACommutationHalfCplt
    stm32f1xx_hal_tim_ex.o(i.HAL_TIMEx_ConfigCommutEvent_DMA) refers to stm32f1xx_hal_tim.o(i.TIM_DMAError) for TIM_DMAError
    stm32f1xx_hal_tim_ex.o(i.HAL_TIMEx_HallSensor_DeInit) refers to stm32f1xx_hal_tim_ex.o(i.HAL_TIMEx_HallSensor_MspDeInit) for HAL_TIMEx_HallSensor_MspDeInit
    stm32f1xx_hal_tim_ex.o(i.HAL_TIMEx_HallSensor_Init) refers to stm32f1xx_hal_tim_ex.o(i.HAL_TIMEx_HallSensor_MspInit) for HAL_TIMEx_HallSensor_MspInit
    stm32f1xx_hal_tim_ex.o(i.HAL_TIMEx_HallSensor_Init) refers to stm32f1xx_hal_tim.o(i.TIM_Base_SetConfig) for TIM_Base_SetConfig
    stm32f1xx_hal_tim_ex.o(i.HAL_TIMEx_HallSensor_Init) refers to stm32f1xx_hal_tim.o(i.TIM_TI1_SetConfig) for TIM_TI1_SetConfig
    stm32f1xx_hal_tim_ex.o(i.HAL_TIMEx_HallSensor_Init) refers to stm32f1xx_hal_tim.o(i.TIM_OC2_SetConfig) for TIM_OC2_SetConfig
    stm32f1xx_hal_tim_ex.o(i.HAL_TIMEx_HallSensor_Start) refers to stm32f1xx_hal_tim.o(i.TIM_CCxChannelCmd) for TIM_CCxChannelCmd
    stm32f1xx_hal_tim_ex.o(i.HAL_TIMEx_HallSensor_Start_DMA) refers to stm32f1xx_hal_tim.o(i.TIM_CCxChannelCmd) for TIM_CCxChannelCmd
    stm32f1xx_hal_tim_ex.o(i.HAL_TIMEx_HallSensor_Start_DMA) refers to stm32f1xx_hal_dma.o(i.HAL_DMA_Start_IT) for HAL_DMA_Start_IT
    stm32f1xx_hal_tim_ex.o(i.HAL_TIMEx_HallSensor_Start_DMA) refers to stm32f1xx_hal_tim.o(i.TIM_DMACaptureCplt) for TIM_DMACaptureCplt
    stm32f1xx_hal_tim_ex.o(i.HAL_TIMEx_HallSensor_Start_DMA) refers to stm32f1xx_hal_tim.o(i.TIM_DMACaptureHalfCplt) for TIM_DMACaptureHalfCplt
    stm32f1xx_hal_tim_ex.o(i.HAL_TIMEx_HallSensor_Start_DMA) refers to stm32f1xx_hal_tim.o(i.TIM_DMAError) for TIM_DMAError
    stm32f1xx_hal_tim_ex.o(i.HAL_TIMEx_HallSensor_Start_IT) refers to stm32f1xx_hal_tim.o(i.TIM_CCxChannelCmd) for TIM_CCxChannelCmd
    stm32f1xx_hal_tim_ex.o(i.HAL_TIMEx_HallSensor_Stop) refers to stm32f1xx_hal_tim.o(i.TIM_CCxChannelCmd) for TIM_CCxChannelCmd
    stm32f1xx_hal_tim_ex.o(i.HAL_TIMEx_HallSensor_Stop_DMA) refers to stm32f1xx_hal_tim.o(i.TIM_CCxChannelCmd) for TIM_CCxChannelCmd
    stm32f1xx_hal_tim_ex.o(i.HAL_TIMEx_HallSensor_Stop_DMA) refers to stm32f1xx_hal_dma.o(i.HAL_DMA_Abort_IT) for HAL_DMA_Abort_IT
    stm32f1xx_hal_tim_ex.o(i.HAL_TIMEx_HallSensor_Stop_IT) refers to stm32f1xx_hal_tim.o(i.TIM_CCxChannelCmd) for TIM_CCxChannelCmd
    stm32f1xx_hal_tim_ex.o(i.HAL_TIMEx_OCN_Start) refers to stm32f1xx_hal_tim_ex.o(i.TIM_CCxNChannelCmd) for TIM_CCxNChannelCmd
    stm32f1xx_hal_tim_ex.o(i.HAL_TIMEx_OCN_Start_DMA) refers to stm32f1xx_hal_dma.o(i.HAL_DMA_Start_IT) for HAL_DMA_Start_IT
    stm32f1xx_hal_tim_ex.o(i.HAL_TIMEx_OCN_Start_DMA) refers to stm32f1xx_hal_tim_ex.o(i.TIM_CCxNChannelCmd) for TIM_CCxNChannelCmd
    stm32f1xx_hal_tim_ex.o(i.HAL_TIMEx_OCN_Start_DMA) refers to stm32f1xx_hal_tim_ex.o(i.TIM_DMADelayPulseNCplt) for TIM_DMADelayPulseNCplt
    stm32f1xx_hal_tim_ex.o(i.HAL_TIMEx_OCN_Start_DMA) refers to stm32f1xx_hal_tim.o(i.TIM_DMADelayPulseHalfCplt) for TIM_DMADelayPulseHalfCplt
    stm32f1xx_hal_tim_ex.o(i.HAL_TIMEx_OCN_Start_DMA) refers to stm32f1xx_hal_tim_ex.o(i.TIM_DMAErrorCCxN) for TIM_DMAErrorCCxN
    stm32f1xx_hal_tim_ex.o(i.HAL_TIMEx_OCN_Start_IT) refers to stm32f1xx_hal_tim_ex.o(i.TIM_CCxNChannelCmd) for TIM_CCxNChannelCmd
    stm32f1xx_hal_tim_ex.o(i.HAL_TIMEx_OCN_Stop) refers to stm32f1xx_hal_tim_ex.o(i.TIM_CCxNChannelCmd) for TIM_CCxNChannelCmd
    stm32f1xx_hal_tim_ex.o(i.HAL_TIMEx_OCN_Stop_DMA) refers to stm32f1xx_hal_dma.o(i.HAL_DMA_Abort_IT) for HAL_DMA_Abort_IT
    stm32f1xx_hal_tim_ex.o(i.HAL_TIMEx_OCN_Stop_DMA) refers to stm32f1xx_hal_tim_ex.o(i.TIM_CCxNChannelCmd) for TIM_CCxNChannelCmd
    stm32f1xx_hal_tim_ex.o(i.HAL_TIMEx_OCN_Stop_IT) refers to stm32f1xx_hal_tim_ex.o(i.TIM_CCxNChannelCmd) for TIM_CCxNChannelCmd
    stm32f1xx_hal_tim_ex.o(i.HAL_TIMEx_OnePulseN_Start) refers to stm32f1xx_hal_tim_ex.o(i.TIM_CCxNChannelCmd) for TIM_CCxNChannelCmd
    stm32f1xx_hal_tim_ex.o(i.HAL_TIMEx_OnePulseN_Start) refers to stm32f1xx_hal_tim.o(i.TIM_CCxChannelCmd) for TIM_CCxChannelCmd
    stm32f1xx_hal_tim_ex.o(i.HAL_TIMEx_OnePulseN_Start_IT) refers to stm32f1xx_hal_tim_ex.o(i.TIM_CCxNChannelCmd) for TIM_CCxNChannelCmd
    stm32f1xx_hal_tim_ex.o(i.HAL_TIMEx_OnePulseN_Start_IT) refers to stm32f1xx_hal_tim.o(i.TIM_CCxChannelCmd) for TIM_CCxChannelCmd
    stm32f1xx_hal_tim_ex.o(i.HAL_TIMEx_OnePulseN_Stop) refers to stm32f1xx_hal_tim_ex.o(i.TIM_CCxNChannelCmd) for TIM_CCxNChannelCmd
    stm32f1xx_hal_tim_ex.o(i.HAL_TIMEx_OnePulseN_Stop) refers to stm32f1xx_hal_tim.o(i.TIM_CCxChannelCmd) for TIM_CCxChannelCmd
    stm32f1xx_hal_tim_ex.o(i.HAL_TIMEx_OnePulseN_Stop_IT) refers to stm32f1xx_hal_tim_ex.o(i.TIM_CCxNChannelCmd) for TIM_CCxNChannelCmd
    stm32f1xx_hal_tim_ex.o(i.HAL_TIMEx_OnePulseN_Stop_IT) refers to stm32f1xx_hal_tim.o(i.TIM_CCxChannelCmd) for TIM_CCxChannelCmd
    stm32f1xx_hal_tim_ex.o(i.HAL_TIMEx_PWMN_Start) refers to stm32f1xx_hal_tim_ex.o(i.TIM_CCxNChannelCmd) for TIM_CCxNChannelCmd
    stm32f1xx_hal_tim_ex.o(i.HAL_TIMEx_PWMN_Start_DMA) refers to stm32f1xx_hal_dma.o(i.HAL_DMA_Start_IT) for HAL_DMA_Start_IT
    stm32f1xx_hal_tim_ex.o(i.HAL_TIMEx_PWMN_Start_DMA) refers to stm32f1xx_hal_tim_ex.o(i.TIM_CCxNChannelCmd) for TIM_CCxNChannelCmd
    stm32f1xx_hal_tim_ex.o(i.HAL_TIMEx_PWMN_Start_DMA) refers to stm32f1xx_hal_tim_ex.o(i.TIM_DMADelayPulseNCplt) for TIM_DMADelayPulseNCplt
    stm32f1xx_hal_tim_ex.o(i.HAL_TIMEx_PWMN_Start_DMA) refers to stm32f1xx_hal_tim.o(i.TIM_DMADelayPulseHalfCplt) for TIM_DMADelayPulseHalfCplt
    stm32f1xx_hal_tim_ex.o(i.HAL_TIMEx_PWMN_Start_DMA) refers to stm32f1xx_hal_tim_ex.o(i.TIM_DMAErrorCCxN) for TIM_DMAErrorCCxN
    stm32f1xx_hal_tim_ex.o(i.HAL_TIMEx_PWMN_Start_IT) refers to stm32f1xx_hal_tim_ex.o(i.TIM_CCxNChannelCmd) for TIM_CCxNChannelCmd
    stm32f1xx_hal_tim_ex.o(i.HAL_TIMEx_PWMN_Stop) refers to stm32f1xx_hal_tim_ex.o(i.TIM_CCxNChannelCmd) for TIM_CCxNChannelCmd
    stm32f1xx_hal_tim_ex.o(i.HAL_TIMEx_PWMN_Stop_DMA) refers to stm32f1xx_hal_dma.o(i.HAL_DMA_Abort_IT) for HAL_DMA_Abort_IT
    stm32f1xx_hal_tim_ex.o(i.HAL_TIMEx_PWMN_Stop_DMA) refers to stm32f1xx_hal_tim_ex.o(i.TIM_CCxNChannelCmd) for TIM_CCxNChannelCmd
    stm32f1xx_hal_tim_ex.o(i.HAL_TIMEx_PWMN_Stop_IT) refers to stm32f1xx_hal_tim_ex.o(i.TIM_CCxNChannelCmd) for TIM_CCxNChannelCmd
    stm32f1xx_hal_tim_ex.o(i.TIMEx_DMACommutationCplt) refers to stm32f1xx_hal_tim_ex.o(i.HAL_TIMEx_CommutCallback) for HAL_TIMEx_CommutCallback
    stm32f1xx_hal_tim_ex.o(i.TIMEx_DMACommutationHalfCplt) refers to stm32f1xx_hal_tim_ex.o(i.HAL_TIMEx_CommutHalfCpltCallback) for HAL_TIMEx_CommutHalfCpltCallback
    stm32f1xx_hal_tim_ex.o(i.TIM_DMADelayPulseNCplt) refers to stm32f1xx_hal_tim.o(i.HAL_TIM_PWM_PulseFinishedCallback) for HAL_TIM_PWM_PulseFinishedCallback
    stm32f1xx_hal_tim_ex.o(i.TIM_DMAErrorCCxN) refers to stm32f1xx_hal_tim.o(i.HAL_TIM_ErrorCallback) for HAL_TIM_ErrorCallback
    stm32f1xx_hal.o(i.HAL_DeInit) refers to stm32f1xx_hal.o(i.HAL_MspDeInit) for HAL_MspDeInit
    stm32f1xx_hal.o(i.HAL_Delay) refers to os_port.o(i.HAL_GetTick) for HAL_GetTick
    stm32f1xx_hal.o(i.HAL_Delay) refers to stm32f1xx_hal.o(.data) for .data
    stm32f1xx_hal.o(i.HAL_GetTick) refers to stm32f1xx_hal.o(.data) for .data
    stm32f1xx_hal.o(i.HAL_GetTickFreq) refers to stm32f1xx_hal.o(.data) for .data
    stm32f1xx_hal.o(i.HAL_GetTickPrio) refers to stm32f1xx_hal.o(.data) for .data
    stm32f1xx_hal.o(i.HAL_IncTick) refers to stm32f1xx_hal.o(.data) for .data
    stm32f1xx_hal.o(i.HAL_Init) refers to stm32f1xx_hal_cortex.o(i.HAL_NVIC_SetPriorityGrouping) for HAL_NVIC_SetPriorityGrouping
    stm32f1xx_hal.o(i.HAL_Init) refers to stm32f1xx_hal.o(i.HAL_InitTick) for HAL_InitTick
    stm32f1xx_hal.o(i.HAL_Init) refers to stm32f1xx_hal_msp.o(i.HAL_MspInit) for HAL_MspInit
    stm32f1xx_hal.o(i.HAL_InitTick) refers to stm32f1xx_hal_cortex.o(i.HAL_SYSTICK_Config) for HAL_SYSTICK_Config
    stm32f1xx_hal.o(i.HAL_InitTick) refers to stm32f1xx_hal_cortex.o(i.HAL_NVIC_SetPriority) for HAL_NVIC_SetPriority
    stm32f1xx_hal.o(i.HAL_InitTick) refers to stm32f1xx_hal.o(.data) for .data
    stm32f1xx_hal.o(i.HAL_InitTick) refers to system_stm32f1xx.o(.data) for SystemCoreClock
    stm32f1xx_hal.o(i.HAL_SetTickFreq) refers to stm32f1xx_hal.o(i.HAL_InitTick) for HAL_InitTick
    stm32f1xx_hal.o(i.HAL_SetTickFreq) refers to stm32f1xx_hal.o(.data) for .data
    stm32f1xx_hal_rcc.o(i.HAL_RCC_ClockConfig) refers to os_port.o(i.HAL_GetTick) for HAL_GetTick
    stm32f1xx_hal_rcc.o(i.HAL_RCC_ClockConfig) refers to stm32f1xx_hal_rcc.o(i.HAL_RCC_GetSysClockFreq) for HAL_RCC_GetSysClockFreq
    stm32f1xx_hal_rcc.o(i.HAL_RCC_ClockConfig) refers to stm32f1xx_hal.o(i.HAL_InitTick) for HAL_InitTick
    stm32f1xx_hal_rcc.o(i.HAL_RCC_ClockConfig) refers to system_stm32f1xx.o(.constdata) for AHBPrescTable
    stm32f1xx_hal_rcc.o(i.HAL_RCC_ClockConfig) refers to system_stm32f1xx.o(.data) for SystemCoreClock
    stm32f1xx_hal_rcc.o(i.HAL_RCC_ClockConfig) refers to stm32f1xx_hal.o(.data) for uwTickPrio
    stm32f1xx_hal_rcc.o(i.HAL_RCC_DeInit) refers to os_port.o(i.HAL_GetTick) for HAL_GetTick
    stm32f1xx_hal_rcc.o(i.HAL_RCC_DeInit) refers to stm32f1xx_hal.o(i.HAL_InitTick) for HAL_InitTick
    stm32f1xx_hal_rcc.o(i.HAL_RCC_DeInit) refers to system_stm32f1xx.o(.data) for SystemCoreClock
    stm32f1xx_hal_rcc.o(i.HAL_RCC_DeInit) refers to stm32f1xx_hal.o(.data) for uwTickPrio
    stm32f1xx_hal_rcc.o(i.HAL_RCC_GetHCLKFreq) refers to system_stm32f1xx.o(.data) for SystemCoreClock
    stm32f1xx_hal_rcc.o(i.HAL_RCC_GetPCLK1Freq) refers to system_stm32f1xx.o(.data) for SystemCoreClock
    stm32f1xx_hal_rcc.o(i.HAL_RCC_GetPCLK1Freq) refers to system_stm32f1xx.o(.constdata) for APBPrescTable
    stm32f1xx_hal_rcc.o(i.HAL_RCC_GetPCLK2Freq) refers to system_stm32f1xx.o(.data) for SystemCoreClock
    stm32f1xx_hal_rcc.o(i.HAL_RCC_GetPCLK2Freq) refers to system_stm32f1xx.o(.constdata) for APBPrescTable
    stm32f1xx_hal_rcc.o(i.HAL_RCC_GetSysClockFreq) refers to stm32f1xx_hal_rcc.o(.constdata) for .constdata
    stm32f1xx_hal_rcc.o(i.HAL_RCC_MCOConfig) refers to stm32f1xx_hal_gpio.o(i.HAL_GPIO_Init) for HAL_GPIO_Init
    stm32f1xx_hal_rcc.o(i.HAL_RCC_NMI_IRQHandler) refers to stm32f1xx_hal_rcc.o(i.HAL_RCC_CSSCallback) for HAL_RCC_CSSCallback
    stm32f1xx_hal_rcc.o(i.HAL_RCC_OscConfig) refers to os_port.o(i.HAL_GetTick) for HAL_GetTick
    stm32f1xx_hal_rcc.o(i.HAL_RCC_OscConfig) refers to system_stm32f1xx.o(.data) for SystemCoreClock
    stm32f1xx_hal_rcc_ex.o(i.HAL_RCCEx_GetPeriphCLKFreq) refers to stm32f1xx_hal_rcc.o(i.HAL_RCC_GetPCLK2Freq) for HAL_RCC_GetPCLK2Freq
    stm32f1xx_hal_rcc_ex.o(i.HAL_RCCEx_GetPeriphCLKFreq) refers to stm32f1xx_hal_rcc.o(i.HAL_RCC_GetSysClockFreq) for HAL_RCC_GetSysClockFreq
    stm32f1xx_hal_rcc_ex.o(i.HAL_RCCEx_GetPeriphCLKFreq) refers to stm32f1xx_hal_rcc_ex.o(.constdata) for .constdata
    stm32f1xx_hal_rcc_ex.o(i.HAL_RCCEx_PeriphCLKConfig) refers to os_port.o(i.HAL_GetTick) for HAL_GetTick
    stm32f1xx_hal_gpio.o(i.HAL_GPIO_EXTI_IRQHandler) refers to stm32f1xx_hal_gpio.o(i.HAL_GPIO_EXTI_Callback) for HAL_GPIO_EXTI_Callback
    stm32f1xx_hal_dma.o(i.HAL_DMA_PollForTransfer) refers to os_port.o(i.HAL_GetTick) for HAL_GetTick
    stm32f1xx_hal_dma.o(i.HAL_DMA_Start) refers to stm32f1xx_hal_dma.o(i.DMA_SetConfig) for DMA_SetConfig
    stm32f1xx_hal_dma.o(i.HAL_DMA_Start_IT) refers to stm32f1xx_hal_dma.o(i.DMA_SetConfig) for DMA_SetConfig
    stm32f1xx_hal_cortex.o(i.HAL_NVIC_SetPriority) refers to stm32f1xx_hal_cortex.o(i.__NVIC_SetPriority) for __NVIC_SetPriority
    stm32f1xx_hal_cortex.o(i.HAL_SYSTICK_Config) refers to stm32f1xx_hal_cortex.o(i.__NVIC_SetPriority) for __NVIC_SetPriority
    stm32f1xx_hal_cortex.o(i.HAL_SYSTICK_IRQHandler) refers to stm32f1xx_hal_cortex.o(i.HAL_SYSTICK_Callback) for HAL_SYSTICK_Callback
    stm32f1xx_hal_pwr.o(i.HAL_PWR_EnterSTOPMode) refers to stm32f1xx_hal_pwr.o(i.PWR_OverloadWfe) for PWR_OverloadWfe
    stm32f1xx_hal_pwr.o(i.HAL_PWR_PVD_IRQHandler) refers to stm32f1xx_hal_pwr.o(i.HAL_PWR_PVDCallback) for HAL_PWR_PVDCallback
    stm32f1xx_hal_flash.o(i.FLASH_Program_HalfWord) refers to stm32f1xx_hal_flash.o(.bss) for .bss
    stm32f1xx_hal_flash.o(i.FLASH_SetErrorCode) refers to stm32f1xx_hal_flash.o(.bss) for .bss
    stm32f1xx_hal_flash.o(i.FLASH_WaitForLastOperation) refers to os_port.o(i.HAL_GetTick) for HAL_GetTick
    stm32f1xx_hal_flash.o(i.FLASH_WaitForLastOperation) refers to stm32f1xx_hal_flash.o(i.FLASH_SetErrorCode) for FLASH_SetErrorCode
    stm32f1xx_hal_flash.o(i.HAL_FLASH_GetError) refers to stm32f1xx_hal_flash.o(.bss) for .bss
    stm32f1xx_hal_flash.o(i.HAL_FLASH_IRQHandler) refers to stm32f1xx_hal_flash.o(i.FLASH_SetErrorCode) for FLASH_SetErrorCode
    stm32f1xx_hal_flash.o(i.HAL_FLASH_IRQHandler) refers to stm32f1xx_hal_flash.o(i.HAL_FLASH_OperationErrorCallback) for HAL_FLASH_OperationErrorCallback
    stm32f1xx_hal_flash.o(i.HAL_FLASH_IRQHandler) refers to stm32f1xx_hal_flash.o(i.FLASH_Program_HalfWord) for FLASH_Program_HalfWord
    stm32f1xx_hal_flash.o(i.HAL_FLASH_IRQHandler) refers to stm32f1xx_hal_flash.o(i.HAL_FLASH_EndOfOperationCallback) for HAL_FLASH_EndOfOperationCallback
    stm32f1xx_hal_flash.o(i.HAL_FLASH_IRQHandler) refers to stm32f1xx_hal_flash_ex.o(i.FLASH_PageErase) for FLASH_PageErase
    stm32f1xx_hal_flash.o(i.HAL_FLASH_IRQHandler) refers to stm32f1xx_hal_flash.o(.bss) for .bss
    stm32f1xx_hal_flash.o(i.HAL_FLASH_OB_Launch) refers to stm32f1xx_hal_cortex.o(i.HAL_NVIC_SystemReset) for HAL_NVIC_SystemReset
    stm32f1xx_hal_flash.o(i.HAL_FLASH_Program) refers to stm32f1xx_hal_flash.o(i.FLASH_WaitForLastOperation) for FLASH_WaitForLastOperation
    stm32f1xx_hal_flash.o(i.HAL_FLASH_Program) refers to llushr.o(.text) for __aeabi_llsr
    stm32f1xx_hal_flash.o(i.HAL_FLASH_Program) refers to stm32f1xx_hal_flash.o(i.FLASH_Program_HalfWord) for FLASH_Program_HalfWord
    stm32f1xx_hal_flash.o(i.HAL_FLASH_Program) refers to stm32f1xx_hal_flash.o(.bss) for .bss
    stm32f1xx_hal_flash.o(i.HAL_FLASH_Program_IT) refers to stm32f1xx_hal_flash.o(i.FLASH_Program_HalfWord) for FLASH_Program_HalfWord
    stm32f1xx_hal_flash.o(i.HAL_FLASH_Program_IT) refers to stm32f1xx_hal_flash.o(.bss) for .bss
    stm32f1xx_hal_flash_ex.o(i.FLASH_MassErase) refers to stm32f1xx_hal_flash.o(.bss) for pFlash
    stm32f1xx_hal_flash_ex.o(i.FLASH_OB_DisableWRP) refers to stm32f1xx_hal_flash.o(i.FLASH_WaitForLastOperation) for FLASH_WaitForLastOperation
    stm32f1xx_hal_flash_ex.o(i.FLASH_OB_DisableWRP) refers to stm32f1xx_hal_flash_ex.o(i.HAL_FLASHEx_OBErase) for HAL_FLASHEx_OBErase
    stm32f1xx_hal_flash_ex.o(i.FLASH_OB_DisableWRP) refers to stm32f1xx_hal_flash.o(.bss) for pFlash
    stm32f1xx_hal_flash_ex.o(i.FLASH_OB_EnableWRP) refers to stm32f1xx_hal_flash.o(i.FLASH_WaitForLastOperation) for FLASH_WaitForLastOperation
    stm32f1xx_hal_flash_ex.o(i.FLASH_OB_EnableWRP) refers to stm32f1xx_hal_flash_ex.o(i.HAL_FLASHEx_OBErase) for HAL_FLASHEx_OBErase
    stm32f1xx_hal_flash_ex.o(i.FLASH_OB_EnableWRP) refers to stm32f1xx_hal_flash.o(.bss) for pFlash
    stm32f1xx_hal_flash_ex.o(i.FLASH_OB_RDP_LevelConfig) refers to stm32f1xx_hal_flash.o(i.FLASH_WaitForLastOperation) for FLASH_WaitForLastOperation
    stm32f1xx_hal_flash_ex.o(i.FLASH_OB_RDP_LevelConfig) refers to stm32f1xx_hal_flash.o(.bss) for pFlash
    stm32f1xx_hal_flash_ex.o(i.FLASH_PageErase) refers to stm32f1xx_hal_flash.o(.bss) for pFlash
    stm32f1xx_hal_flash_ex.o(i.HAL_FLASHEx_Erase) refers to stm32f1xx_hal_flash.o(i.FLASH_WaitForLastOperation) for FLASH_WaitForLastOperation
    stm32f1xx_hal_flash_ex.o(i.HAL_FLASHEx_Erase) refers to stm32f1xx_hal_flash_ex.o(i.FLASH_MassErase) for FLASH_MassErase
    stm32f1xx_hal_flash_ex.o(i.HAL_FLASHEx_Erase) refers to stm32f1xx_hal_flash_ex.o(i.FLASH_PageErase) for FLASH_PageErase
    stm32f1xx_hal_flash_ex.o(i.HAL_FLASHEx_Erase) refers to stm32f1xx_hal_flash.o(.bss) for pFlash
    stm32f1xx_hal_flash_ex.o(i.HAL_FLASHEx_Erase_IT) refers to stm32f1xx_hal_flash_ex.o(i.FLASH_PageErase) for FLASH_PageErase
    stm32f1xx_hal_flash_ex.o(i.HAL_FLASHEx_Erase_IT) refers to stm32f1xx_hal_flash_ex.o(i.FLASH_MassErase) for FLASH_MassErase
    stm32f1xx_hal_flash_ex.o(i.HAL_FLASHEx_Erase_IT) refers to stm32f1xx_hal_flash.o(.bss) for pFlash
    stm32f1xx_hal_flash_ex.o(i.HAL_FLASHEx_OBErase) refers to stm32f1xx_hal_flash_ex.o(i.FLASH_OB_GetRDP) for FLASH_OB_GetRDP
    stm32f1xx_hal_flash_ex.o(i.HAL_FLASHEx_OBErase) refers to stm32f1xx_hal_flash.o(i.FLASH_WaitForLastOperation) for FLASH_WaitForLastOperation
    stm32f1xx_hal_flash_ex.o(i.HAL_FLASHEx_OBErase) refers to stm32f1xx_hal_flash_ex.o(i.FLASH_OB_RDP_LevelConfig) for FLASH_OB_RDP_LevelConfig
    stm32f1xx_hal_flash_ex.o(i.HAL_FLASHEx_OBErase) refers to stm32f1xx_hal_flash.o(.bss) for pFlash
    stm32f1xx_hal_flash_ex.o(i.HAL_FLASHEx_OBGetConfig) refers to stm32f1xx_hal_flash_ex.o(i.FLASH_OB_GetRDP) for FLASH_OB_GetRDP
    stm32f1xx_hal_flash_ex.o(i.HAL_FLASHEx_OBProgram) refers to stm32f1xx_hal_flash_ex.o(i.FLASH_OB_DisableWRP) for FLASH_OB_DisableWRP
    stm32f1xx_hal_flash_ex.o(i.HAL_FLASHEx_OBProgram) refers to stm32f1xx_hal_flash_ex.o(i.FLASH_OB_EnableWRP) for FLASH_OB_EnableWRP
    stm32f1xx_hal_flash_ex.o(i.HAL_FLASHEx_OBProgram) refers to stm32f1xx_hal_flash_ex.o(i.FLASH_OB_RDP_LevelConfig) for FLASH_OB_RDP_LevelConfig
    stm32f1xx_hal_flash_ex.o(i.HAL_FLASHEx_OBProgram) refers to stm32f1xx_hal_flash.o(i.FLASH_WaitForLastOperation) for FLASH_WaitForLastOperation
    stm32f1xx_hal_flash_ex.o(i.HAL_FLASHEx_OBProgram) refers to stm32f1xx_hal_flash.o(.bss) for pFlash
    stm32f1xx_hal_uart.o(i.HAL_HalfDuplex_Init) refers to stm32f1xx_hal_msp.o(i.HAL_UART_MspInit) for HAL_UART_MspInit
    stm32f1xx_hal_uart.o(i.HAL_HalfDuplex_Init) refers to stm32f1xx_hal_uart.o(i.UART_SetConfig) for UART_SetConfig
    stm32f1xx_hal_uart.o(i.HAL_LIN_Init) refers to stm32f1xx_hal_msp.o(i.HAL_UART_MspInit) for HAL_UART_MspInit
    stm32f1xx_hal_uart.o(i.HAL_LIN_Init) refers to stm32f1xx_hal_uart.o(i.UART_SetConfig) for UART_SetConfig
    stm32f1xx_hal_uart.o(i.HAL_MultiProcessor_Init) refers to stm32f1xx_hal_msp.o(i.HAL_UART_MspInit) for HAL_UART_MspInit
    stm32f1xx_hal_uart.o(i.HAL_MultiProcessor_Init) refers to stm32f1xx_hal_uart.o(i.UART_SetConfig) for UART_SetConfig
    stm32f1xx_hal_uart.o(i.HAL_UARTEx_ReceiveToIdle) refers to os_port.o(i.HAL_GetTick) for HAL_GetTick
    stm32f1xx_hal_uart.o(i.HAL_UARTEx_ReceiveToIdle_DMA) refers to stm32f1xx_hal_uart.o(i.UART_Start_Receive_DMA) for UART_Start_Receive_DMA
    stm32f1xx_hal_uart.o(i.HAL_UARTEx_ReceiveToIdle_IT) refers to stm32f1xx_hal_uart.o(i.UART_Start_Receive_IT) for UART_Start_Receive_IT
    stm32f1xx_hal_uart.o(i.HAL_UART_Abort) refers to stm32f1xx_hal_dma.o(i.HAL_DMA_Abort) for HAL_DMA_Abort
    stm32f1xx_hal_uart.o(i.HAL_UART_Abort) refers to stm32f1xx_hal_dma.o(i.HAL_DMA_GetError) for HAL_DMA_GetError
    stm32f1xx_hal_uart.o(i.HAL_UART_AbortReceive) refers to stm32f1xx_hal_dma.o(i.HAL_DMA_Abort) for HAL_DMA_Abort
    stm32f1xx_hal_uart.o(i.HAL_UART_AbortReceive) refers to stm32f1xx_hal_dma.o(i.HAL_DMA_GetError) for HAL_DMA_GetError
    stm32f1xx_hal_uart.o(i.HAL_UART_AbortReceive_IT) refers to stm32f1xx_hal_dma.o(i.HAL_DMA_Abort_IT) for HAL_DMA_Abort_IT
    stm32f1xx_hal_uart.o(i.HAL_UART_AbortReceive_IT) refers to stm32f1xx_hal_uart.o(i.HAL_UART_AbortReceiveCpltCallback) for HAL_UART_AbortReceiveCpltCallback
    stm32f1xx_hal_uart.o(i.HAL_UART_AbortReceive_IT) refers to stm32f1xx_hal_uart.o(i.UART_DMARxOnlyAbortCallback) for UART_DMARxOnlyAbortCallback
    stm32f1xx_hal_uart.o(i.HAL_UART_AbortTransmit) refers to stm32f1xx_hal_dma.o(i.HAL_DMA_Abort) for HAL_DMA_Abort
    stm32f1xx_hal_uart.o(i.HAL_UART_AbortTransmit) refers to stm32f1xx_hal_dma.o(i.HAL_DMA_GetError) for HAL_DMA_GetError
    stm32f1xx_hal_uart.o(i.HAL_UART_AbortTransmit_IT) refers to stm32f1xx_hal_dma.o(i.HAL_DMA_Abort_IT) for HAL_DMA_Abort_IT
    stm32f1xx_hal_uart.o(i.HAL_UART_AbortTransmit_IT) refers to stm32f1xx_hal_uart.o(i.HAL_UART_AbortTransmitCpltCallback) for HAL_UART_AbortTransmitCpltCallback
    stm32f1xx_hal_uart.o(i.HAL_UART_AbortTransmit_IT) refers to stm32f1xx_hal_uart.o(i.UART_DMATxOnlyAbortCallback) for UART_DMATxOnlyAbortCallback
    stm32f1xx_hal_uart.o(i.HAL_UART_Abort_IT) refers to stm32f1xx_hal_dma.o(i.HAL_DMA_Abort_IT) for HAL_DMA_Abort_IT
    stm32f1xx_hal_uart.o(i.HAL_UART_Abort_IT) refers to stm32f1xx_hal_uart.o(i.HAL_UART_AbortCpltCallback) for HAL_UART_AbortCpltCallback
    stm32f1xx_hal_uart.o(i.HAL_UART_Abort_IT) refers to stm32f1xx_hal_uart.o(i.UART_DMATxAbortCallback) for UART_DMATxAbortCallback
    stm32f1xx_hal_uart.o(i.HAL_UART_Abort_IT) refers to stm32f1xx_hal_uart.o(i.UART_DMARxAbortCallback) for UART_DMARxAbortCallback
    stm32f1xx_hal_uart.o(i.HAL_UART_DMAStop) refers to stm32f1xx_hal_dma.o(i.HAL_DMA_Abort) for HAL_DMA_Abort
    stm32f1xx_hal_uart.o(i.HAL_UART_DMAStop) refers to stm32f1xx_hal_uart.o(i.UART_EndTxTransfer) for UART_EndTxTransfer
    stm32f1xx_hal_uart.o(i.HAL_UART_DMAStop) refers to stm32f1xx_hal_uart.o(i.UART_EndRxTransfer) for UART_EndRxTransfer
    stm32f1xx_hal_uart.o(i.HAL_UART_DeInit) refers to stm32f1xx_hal_msp.o(i.HAL_UART_MspDeInit) for HAL_UART_MspDeInit
    stm32f1xx_hal_uart.o(i.HAL_UART_IRQHandler) refers to stm32f1xx_hal_uart.o(i.UART_Receive_IT) for UART_Receive_IT
    stm32f1xx_hal_uart.o(i.HAL_UART_IRQHandler) refers to stm32f1xx_hal_uart.o(i.UART_EndRxTransfer) for UART_EndRxTransfer
    stm32f1xx_hal_uart.o(i.HAL_UART_IRQHandler) refers to stm32f1xx_hal_dma.o(i.HAL_DMA_Abort_IT) for HAL_DMA_Abort_IT
    stm32f1xx_hal_uart.o(i.HAL_UART_IRQHandler) refers to stm32f1xx_hal_uart.o(i.HAL_UART_ErrorCallback) for HAL_UART_ErrorCallback
    stm32f1xx_hal_uart.o(i.HAL_UART_IRQHandler) refers to stm32f1xx_hal_dma.o(i.HAL_DMA_Abort) for HAL_DMA_Abort
    stm32f1xx_hal_uart.o(i.HAL_UART_IRQHandler) refers to stm32f1xx_hal_uart.o(i.HAL_UARTEx_RxEventCallback) for HAL_UARTEx_RxEventCallback
    stm32f1xx_hal_uart.o(i.HAL_UART_IRQHandler) refers to stm32f1xx_hal_uart.o(i.HAL_UART_TxCpltCallback) for HAL_UART_TxCpltCallback
    stm32f1xx_hal_uart.o(i.HAL_UART_IRQHandler) refers to stm32f1xx_hal_uart.o(i.UART_DMAAbortOnError) for UART_DMAAbortOnError
    stm32f1xx_hal_uart.o(i.HAL_UART_Init) refers to stm32f1xx_hal_msp.o(i.HAL_UART_MspInit) for HAL_UART_MspInit
    stm32f1xx_hal_uart.o(i.HAL_UART_Init) refers to stm32f1xx_hal_uart.o(i.UART_SetConfig) for UART_SetConfig
    stm32f1xx_hal_uart.o(i.HAL_UART_Receive) refers to os_port.o(i.HAL_GetTick) for HAL_GetTick
    stm32f1xx_hal_uart.o(i.HAL_UART_Receive) refers to stm32f1xx_hal_uart.o(i.UART_WaitOnFlagUntilTimeout) for UART_WaitOnFlagUntilTimeout
    stm32f1xx_hal_uart.o(i.HAL_UART_Receive_DMA) refers to stm32f1xx_hal_uart.o(i.UART_Start_Receive_DMA) for UART_Start_Receive_DMA
    stm32f1xx_hal_uart.o(i.HAL_UART_Receive_IT) refers to stm32f1xx_hal_uart.o(i.UART_Start_Receive_IT) for UART_Start_Receive_IT
    stm32f1xx_hal_uart.o(i.HAL_UART_Transmit) refers to os_port.o(i.HAL_GetTick) for HAL_GetTick
    stm32f1xx_hal_uart.o(i.HAL_UART_Transmit) refers to stm32f1xx_hal_uart.o(i.UART_WaitOnFlagUntilTimeout) for UART_WaitOnFlagUntilTimeout
    stm32f1xx_hal_uart.o(i.HAL_UART_Transmit_DMA) refers to stm32f1xx_hal_dma.o(i.HAL_DMA_Start_IT) for HAL_DMA_Start_IT
    stm32f1xx_hal_uart.o(i.HAL_UART_Transmit_DMA) refers to stm32f1xx_hal_uart.o(i.UART_DMATransmitCplt) for UART_DMATransmitCplt
    stm32f1xx_hal_uart.o(i.HAL_UART_Transmit_DMA) refers to stm32f1xx_hal_uart.o(i.UART_DMATxHalfCplt) for UART_DMATxHalfCplt
    stm32f1xx_hal_uart.o(i.HAL_UART_Transmit_DMA) refers to stm32f1xx_hal_uart.o(i.UART_DMAError) for UART_DMAError
    stm32f1xx_hal_uart.o(i.UART_DMAAbortOnError) refers to stm32f1xx_hal_uart.o(i.HAL_UART_ErrorCallback) for HAL_UART_ErrorCallback
    stm32f1xx_hal_uart.o(i.UART_DMAError) refers to stm32f1xx_hal_uart.o(i.UART_EndTxTransfer) for UART_EndTxTransfer
    stm32f1xx_hal_uart.o(i.UART_DMAError) refers to stm32f1xx_hal_uart.o(i.UART_EndRxTransfer) for UART_EndRxTransfer
    stm32f1xx_hal_uart.o(i.UART_DMAError) refers to stm32f1xx_hal_uart.o(i.HAL_UART_ErrorCallback) for HAL_UART_ErrorCallback
    stm32f1xx_hal_uart.o(i.UART_DMAReceiveCplt) refers to stm32f1xx_hal_uart.o(i.HAL_UART_RxCpltCallback) for HAL_UART_RxCpltCallback
    stm32f1xx_hal_uart.o(i.UART_DMAReceiveCplt) refers to stm32f1xx_hal_uart.o(i.HAL_UARTEx_RxEventCallback) for HAL_UARTEx_RxEventCallback
    stm32f1xx_hal_uart.o(i.UART_DMARxAbortCallback) refers to stm32f1xx_hal_uart.o(i.HAL_UART_AbortCpltCallback) for HAL_UART_AbortCpltCallback
    stm32f1xx_hal_uart.o(i.UART_DMARxHalfCplt) refers to stm32f1xx_hal_uart.o(i.HAL_UART_RxHalfCpltCallback) for HAL_UART_RxHalfCpltCallback
    stm32f1xx_hal_uart.o(i.UART_DMARxHalfCplt) refers to stm32f1xx_hal_uart.o(i.HAL_UARTEx_RxEventCallback) for HAL_UARTEx_RxEventCallback
    stm32f1xx_hal_uart.o(i.UART_DMARxOnlyAbortCallback) refers to stm32f1xx_hal_uart.o(i.HAL_UART_AbortReceiveCpltCallback) for HAL_UART_AbortReceiveCpltCallback
    stm32f1xx_hal_uart.o(i.UART_DMATransmitCplt) refers to stm32f1xx_hal_uart.o(i.HAL_UART_TxCpltCallback) for HAL_UART_TxCpltCallback
    stm32f1xx_hal_uart.o(i.UART_DMATxAbortCallback) refers to stm32f1xx_hal_uart.o(i.HAL_UART_AbortCpltCallback) for HAL_UART_AbortCpltCallback
    stm32f1xx_hal_uart.o(i.UART_DMATxHalfCplt) refers to stm32f1xx_hal_uart.o(i.HAL_UART_TxHalfCpltCallback) for HAL_UART_TxHalfCpltCallback
    stm32f1xx_hal_uart.o(i.UART_DMATxOnlyAbortCallback) refers to stm32f1xx_hal_uart.o(i.HAL_UART_AbortTransmitCpltCallback) for HAL_UART_AbortTransmitCpltCallback
    stm32f1xx_hal_uart.o(i.UART_Receive_IT) refers to stm32f1xx_hal_uart.o(i.HAL_UART_RxCpltCallback) for HAL_UART_RxCpltCallback
    stm32f1xx_hal_uart.o(i.UART_Receive_IT) refers to stm32f1xx_hal_uart.o(i.HAL_UARTEx_RxEventCallback) for HAL_UARTEx_RxEventCallback
    stm32f1xx_hal_uart.o(i.UART_SetConfig) refers to stm32f1xx_hal_rcc.o(i.HAL_RCC_GetPCLK2Freq) for HAL_RCC_GetPCLK2Freq
    stm32f1xx_hal_uart.o(i.UART_SetConfig) refers to stm32f1xx_hal_rcc.o(i.HAL_RCC_GetPCLK1Freq) for HAL_RCC_GetPCLK1Freq
    stm32f1xx_hal_uart.o(i.UART_Start_Receive_DMA) refers to stm32f1xx_hal_dma.o(i.HAL_DMA_Start_IT) for HAL_DMA_Start_IT
    stm32f1xx_hal_uart.o(i.UART_Start_Receive_DMA) refers to stm32f1xx_hal_uart.o(i.UART_DMAReceiveCplt) for UART_DMAReceiveCplt
    stm32f1xx_hal_uart.o(i.UART_Start_Receive_DMA) refers to stm32f1xx_hal_uart.o(i.UART_DMARxHalfCplt) for UART_DMARxHalfCplt
    stm32f1xx_hal_uart.o(i.UART_Start_Receive_DMA) refers to stm32f1xx_hal_uart.o(i.UART_DMAError) for UART_DMAError
    stm32f1xx_hal_uart.o(i.UART_WaitOnFlagUntilTimeout) refers to os_port.o(i.HAL_GetTick) for HAL_GetTick
    system_stm32f1xx.o(i.SystemCoreClockUpdate) refers to system_stm32f1xx.o(.data) for .data
    system_stm32f1xx.o(i.SystemCoreClockUpdate) refers to system_stm32f1xx.o(.constdata) for .constdata
    bsp.o(i.bsp_getdeviceid) refers to bsp.o(.data) for .data
    os_port.o(i.HAL_GetTick) refers to rt_time.o(.data) for os_time
    uart_interface.o(i.uart_interface__alloc_rev_uartmsg) refers to tlsf.o(i.tlsf_malloc) for tlsf_malloc
    uart_interface.o(i.uart_interface__alloc_rev_uartmsg) refers to memseta.o(.text) for __aeabi_memclr
    uart_interface.o(i.uart_interface__free) refers to stm32f1xx_hal_uart.o(i.HAL_UART_AbortReceive) for HAL_UART_AbortReceive
    uart_interface.o(i.uart_interface__free) refers to tlsf.o(i.tlsf_free) for tlsf_free
    uart_interface.o(i.uart_interface__free) refers to vlist.o(i.vlist__clear) for vlist__clear
    uart_interface.o(i.uart_interface__init) refers to memseta.o(.text) for __aeabi_memclr4
    uart_interface.o(i.uart_interface__init) refers to tlsf.o(i.tlsf_malloc) for tlsf_malloc
    uart_interface.o(i.uart_interface__init) refers to vmsgexec.o(i.msgexec_create_module) for msgexec_create_module
    uart_interface.o(i.uart_interface__init) refers to vlist.o(i.vlist__create) for vlist__create
    uart_interface.o(i.uart_interface__init) refers to uart_interface.o(i.uart_wincallback) for uart_wincallback
    uart_interface.o(i.uart_interface__rev_data) refers to stm32f1xx_hal_uart.o(i.HAL_UART_AbortReceive) for HAL_UART_AbortReceive
    uart_interface.o(i.uart_interface__rev_data) refers to uart_interface.o(i.uart_interface__alloc_rev_uartmsg) for uart_interface__alloc_rev_uartmsg
    uart_interface.o(i.uart_interface__rev_data) refers to stm32f1xx_hal_uart.o(i.HAL_UART_Receive_DMA) for HAL_UART_Receive_DMA
    uart_interface.o(i.uart_interface__rev_data) refers to vmsgexec.o(i.vwm_send_message_p) for vwm_send_message_p
    uart_interface.o(i.uart_interface__send_data) refers to rt_cmsis.o(i.osDelay) for osDelay
    uart_interface.o(i.uart_interface__send_data) refers to stm32f1xx_hal_uart.o(i.HAL_UART_Transmit) for HAL_UART_Transmit
    uart_interface.o(i.uart_interface__send_data) refers to tlsf.o(i.tlsf_malloc) for tlsf_malloc
    uart_interface.o(i.uart_interface__send_data) refers to memcpya.o(.text) for __aeabi_memcpy
    uart_interface.o(i.uart_interface__send_data) refers to vmsgexec.o(i.vwm_send_message_p) for vwm_send_message_p
    uart_interface.o(i.uart_interface__send_data) refers to tlsf.o(i.tlsf_free) for tlsf_free
    uart_interface.o(i.uart_interface__send_one_frame) refers to stm32f1xx_hal_gpio.o(i.HAL_GPIO_WritePin) for HAL_GPIO_WritePin
    uart_interface.o(i.uart_interface__send_one_frame) refers to rt_cmsis.o(i.osDelay) for osDelay
    uart_interface.o(i.uart_interface__send_one_frame) refers to stm32f1xx_hal_uart.o(i.HAL_UART_Transmit) for HAL_UART_Transmit
    uart_interface.o(i.uart_interface__send_one_frame) refers to tlsf.o(i.tlsf_malloc) for tlsf_malloc
    uart_interface.o(i.uart_interface__send_one_frame) refers to memcpya.o(.text) for __aeabi_memcpy
    uart_interface.o(i.uart_interface__send_one_frame) refers to vmsgexec.o(i.vwm_send_message_p) for vwm_send_message_p
    uart_interface.o(i.uart_interface__send_one_frame) refers to tlsf.o(i.tlsf_free) for tlsf_free
    uart_interface.o(i.uart_interface__start_receive) refers to tlsf.o(i.tlsf_free) for tlsf_free
    uart_interface.o(i.uart_interface__start_receive) refers to memseta.o(.text) for __aeabi_memclr4
    uart_interface.o(i.uart_interface__start_receive) refers to uart_interface.o(i.uart_interface__alloc_rev_uartmsg) for uart_interface__alloc_rev_uartmsg
    uart_interface.o(i.uart_interface__start_receive) refers to stm32f1xx_hal_uart.o(i.HAL_UART_Receive_DMA) for HAL_UART_Receive_DMA
    uart_interface.o(i.uart_interface__stop_receive) refers to stm32f1xx_hal_uart.o(i.HAL_UART_AbortReceive) for HAL_UART_AbortReceive
    uart_interface.o(i.uart_interface__transmit_complete) refers to vmsgexec.o(i.vwm_send_message_p) for vwm_send_message_p
    uart_interface.o(i.uart_interface__transmit_complete_run) refers to vlist.o(i.vlist__pop) for vlist__pop
    uart_interface.o(i.uart_interface__transmit_complete_run) refers to tlsf.o(i.tlsf_free) for tlsf_free
    uart_interface.o(i.uart_interface__transmit_complete_run) refers to vlist.o(i.vlist__count) for vlist__count
    uart_interface.o(i.uart_interface__transmit_complete_run) refers to vlist.o(i.vlist__virtual_pop) for vlist__virtual_pop
    uart_interface.o(i.uart_interface__transmit_complete_run) refers to stm32f1xx_hal_uart.o(i.HAL_UART_Transmit_DMA) for HAL_UART_Transmit_DMA
    uart_interface.o(i.uart_wincallback) refers to uart_interface.o(i.uart_interface__transmit_complete_run) for uart_interface__transmit_complete_run
    uart_interface.o(i.uart_wincallback) refers to uart_interface.o(i.uart_interface__handle_one_byte) for uart_interface__handle_one_byte
    uart_interface.o(i.uart_wincallback) refers to vmsgexec.o(i.msgexec_get_userdata) for msgexec_get_userdata
    uart_interface.o(i.uart_wincallback) refers to stm32f1xx_hal_uart.o(i.HAL_UART_Transmit_DMA) for HAL_UART_Transmit_DMA
    uart_interface.o(i.uart_wincallback) refers to tlsf.o(i.tlsf_free) for tlsf_free
    uart_interface.o(i.uart_wincallback) refers to vlist.o(i.vlist__append) for vlist__append
    vchannel.o(i.vchannel_alloc_message) refers to rt_cmsis.o(i.osMailCAlloc) for osMailCAlloc
    vchannel.o(i.vchannel_execute_message) refers to rt_cmsis.o(i.osMailGet) for osMailGet
    vchannel.o(i.vchannel_execute_message) refers to tlsf.o(i.tlsf_free) for tlsf_free
    vchannel.o(i.vchannel_execute_message) refers to rt_cmsis.o(i.osMailFree) for osMailFree
    vchannel.o(i.vchannel_free) refers to tlsf.o(i.tlsf_free) for tlsf_free
    vchannel.o(i.vchannel_free_message) refers to tlsf.o(i.tlsf_free) for tlsf_free
    vchannel.o(i.vchannel_free_message) refers to rt_cmsis.o(i.osMailFree) for osMailFree
    vchannel.o(i.vchannel_new) refers to tlsf.o(i.tlsf_malloc) for tlsf_malloc
    vchannel.o(i.vchannel_new) refers to rt_cmsis.o(i.osMailCreate) for osMailCreate
    vchannel.o(i.vchannel_new) refers to vlist.o(i.vlist__create) for vlist__create
    vchannel.o(i.vchannel_put_message) refers to rt_cmsis.o(i.osMailPut) for osMailPut
    vchannel.o(i.vchannel_send_message) refers to vchannel.o(i.vchannel_alloc_message) for vchannel_alloc_message
    vchannel.o(i.vchannel_send_message) refers to vchannel.o(i.vchannel_put_message) for vchannel_put_message
    vchannel.o(i.vchannel_send_message_no_para) refers to vchannel.o(i.vchannel_alloc_message) for vchannel_alloc_message
    vchannel.o(i.vchannel_send_message_no_para) refers to vchannel.o(i.vchannel_put_message) for vchannel_put_message
    vchannel.o(i.vchannel_send_message_p) refers to vchannel.o(i.vchannel_alloc_message) for vchannel_alloc_message
    vchannel.o(i.vchannel_send_message_p) refers to vchannel.o(i.vchannel_put_message) for vchannel_put_message
    vchannel.o(i.vchannel_wait_message) refers to rt_cmsis.o(i.osMailGet) for osMailGet
    vchannel.o(i.vchannel_wait_multi_messages) refers to rt_cmsis.o(i.osMailGet) for osMailGet
    vchannel.o(i.vchannel_wait_multi_messages) refers to vlist.o(i.vlist__search) for vlist__search
    vchannel.o(i.vchannel_waitlist_add) refers to vlist.o(i.vlist__search) for vlist__search
    vchannel.o(i.vchannel_waitlist_add) refers to vlist.o(i.vlist__append) for vlist__append
    vchannel.o(i.vchannel_waitlist_clear) refers to vlist.o(i.vlist__clear) for vlist__clear
    vkey.o(i.key_scan__getkeystate) refers to vkey.o(.bss) for .bss
    vkey.o(i.key_scan__init) refers to tlsf.o(i.tlsf_free) for tlsf_free
    vkey.o(i.key_scan__init) refers to tlsf.o(i.tlsf_malloc) for tlsf_malloc
    vkey.o(i.key_scan__init) refers to stm32f1xx_hal_gpio.o(i.HAL_GPIO_ReadPin) for HAL_GPIO_ReadPin
    vkey.o(i.key_scan__init) refers to vkey.o(.bss) for .bss
    vkey.o(i.key_scan__scan) refers to stm32f1xx_hal_gpio.o(i.HAL_GPIO_ReadPin) for HAL_GPIO_ReadPin
    vkey.o(i.key_scan__scan) refers to vmsgexec.o(i.vwm_send_message) for vwm_send_message
    vkey.o(i.key_scan__scan) refers to vkey.o(.bss) for .bss
    vlist.o(i.vlist__append) refers to tlsf.o(i.tlsf_malloc) for tlsf_malloc
    vlist.o(i.vlist__clear) refers to tlsf.o(i.tlsf_free) for tlsf_free
    vlist.o(i.vlist__create) refers to tlsf.o(i.tlsf_malloc) for tlsf_malloc
    vlist.o(i.vlist__pop) refers to tlsf.o(i.tlsf_free) for tlsf_free
    vlist.o(i.vlist__remove) refers to vlist.o(i.vlist__search) for vlist__search
    vlist.o(i.vlist__remove) refers to tlsf.o(i.tlsf_free) for tlsf_free
    vmsgexec.o(i.msgexec_alloc_message) refers to rt_cmsis.o(i.osMailCAlloc) for osMailCAlloc
    vmsgexec.o(i.msgexec_alloc_message) refers to vmsgexec.o(.data) for .data
    vmsgexec.o(i.msgexec_create_module) refers to tlsf.o(i.tlsf_malloc) for tlsf_malloc
    vmsgexec.o(i.msgexec_create_module) refers to vmsgexec.o(i.msgexec_alloc_message) for msgexec_alloc_message
    vmsgexec.o(i.msgexec_create_module) refers to vmsgexec.o(i.msgexec_put_message) for msgexec_put_message
    vmsgexec.o(i.msgexec_create_module) refers to vmsgexec.o(i.msgexec_free_module) for msgexec_free_module
    vmsgexec.o(i.msgexec_create_module) refers to vmsgexec.o(.data) for .data
    vmsgexec.o(i.msgexec_exec) refers to rt_cmsis.o(i.osMailGet) for osMailGet
    vmsgexec.o(i.msgexec_exec) refers to tlsf.o(i.tlsf_free) for tlsf_free
    vmsgexec.o(i.msgexec_exec) refers to rt_cmsis.o(i.osMailFree) for osMailFree
    vmsgexec.o(i.msgexec_exec) refers to vmsgexec.o(.data) for .data
    vmsgexec.o(i.msgexec_free_module) refers to vmsgexec.o(i.vwm_clear_wnd_timer) for vwm_clear_wnd_timer
    vmsgexec.o(i.msgexec_free_module) refers to tlsf.o(i.tlsf_free) for tlsf_free
    vmsgexec.o(i.msgexec_free_module) refers to vmsgexec.o(.data) for .data
    vmsgexec.o(i.msgexec_get_topwindow) refers to vmsgexec.o(.data) for .data
    vmsgexec.o(i.msgexec_init) refers to rt_cmsis.o(i.osMailCreate) for osMailCreate
    vmsgexec.o(i.msgexec_init) refers to vmsgexec.o(.data) for .data
    vmsgexec.o(i.msgexec_init) refers to vmsgexec.o(.constdata) for .constdata
    vmsgexec.o(i.msgexec_put_message) refers to rt_cmsis.o(i.osMailPut) for osMailPut
    vmsgexec.o(i.msgexec_put_message) refers to vmsgexec.o(.data) for .data
    vmsgexec.o(i.ostimer_callback) refers to vmsgexec.o(i.msgexec_alloc_message) for msgexec_alloc_message
    vmsgexec.o(i.ostimer_callback) refers to vmsgexec.o(i.msgexec_put_message) for msgexec_put_message
    vmsgexec.o(i.vgui_send_key_msg) refers to tlsf.o(i.tlsf_malloc) for tlsf_malloc
    vmsgexec.o(i.vgui_send_key_msg) refers to vmsgexec.o(i.msgexec_alloc_message) for msgexec_alloc_message
    vmsgexec.o(i.vgui_send_key_msg) refers to vmsgexec.o(i.msgexec_put_message) for msgexec_put_message
    vmsgexec.o(i.vgui_send_key_msg) refers to vmsgexec.o(.data) for .data
    vmsgexec.o(i.vmw_stop_timer) refers to rt_cmsis.o(i.osTimerStop) for osTimerStop
    vmsgexec.o(i.vwm_clear_wnd_timer) refers to vmsgexec.o(i.vwm_find_timer_by_wnd) for vwm_find_timer_by_wnd
    vmsgexec.o(i.vwm_clear_wnd_timer) refers to vmsgexec.o(i.vwm_delete_timer) for vwm_delete_timer
    vmsgexec.o(i.vwm_create_timer) refers to tlsf.o(i.tlsf_malloc) for tlsf_malloc
    vmsgexec.o(i.vwm_create_timer) refers to memseta.o(.text) for __aeabi_memclr4
    vmsgexec.o(i.vwm_create_timer) refers to rt_cmsis.o(i.osTimerCreate) for osTimerCreate
    vmsgexec.o(i.vwm_create_timer) refers to vmsgexec.o(i.ostimer_callback) for ostimer_callback
    vmsgexec.o(i.vwm_create_timer) refers to vmsgexec.o(.data) for .data
    vmsgexec.o(i.vwm_delete_timer) refers to rt_cmsis.o(i.osTimerDelete) for osTimerDelete
    vmsgexec.o(i.vwm_delete_timer) refers to tlsf.o(i.tlsf_free) for tlsf_free
    vmsgexec.o(i.vwm_delete_timer) refers to vmsgexec.o(.data) for .data
    vmsgexec.o(i.vwm_find_timer_by_wnd) refers to vmsgexec.o(.data) for .data
    vmsgexec.o(i.vwm_restart_timer) refers to rt_cmsis.o(i.osTimerStart) for osTimerStart
    vmsgexec.o(i.vwm_send_message) refers to vmsgexec.o(i.msgexec_alloc_message) for msgexec_alloc_message
    vmsgexec.o(i.vwm_send_message) refers to vmsgexec.o(i.msgexec_put_message) for msgexec_put_message
    vmsgexec.o(i.vwm_send_message_no_para) refers to vmsgexec.o(i.msgexec_alloc_message) for msgexec_alloc_message
    vmsgexec.o(i.vwm_send_message_no_para) refers to vmsgexec.o(i.msgexec_put_message) for msgexec_put_message
    vmsgexec.o(i.vwm_send_message_p) refers to vmsgexec.o(i.msgexec_alloc_message) for msgexec_alloc_message
    vmsgexec.o(i.vwm_send_message_p) refers to vmsgexec.o(i.msgexec_put_message) for msgexec_put_message
    vmsgexec.o(i.vwm_start_timer) refers to rt_cmsis.o(i.osTimerStart) for osTimerStart
    vmsgexec.o(i.vwm_timer_init) refers to vmsgexec.o(.data) for .data
    vmsgexec.o(.constdata) refers to vmsgexec.o(.data) for os_mailQ_p_msgexec_queue
    vmsgexec.o(.constdata) refers to vmsgexec.o(i.ostimer_callback) for ostimer_callback
    vmsgexec.o(.constdata) refers to vmsgexec.o(.bss) for os_timer_cb_vostimer
    vmsgexec.o(.data) refers to vmsgexec.o(.bss) for os_mailQ_q_msgexec_queue
    vmsgexec.o(.data) refers to vmsgexec.o(.bss) for os_mailQ_m_msgexec_queue
    dht11.o(i.DHT11_Check) refers to dht11.o(i.DHT11_IO_IN) for DHT11_IO_IN
    dht11.o(i.DHT11_Check) refers to dht11.o(i.Delay_us) for Delay_us
    dht11.o(i.DHT11_Check) refers to stm32f1xx_hal_gpio.o(i.HAL_GPIO_ReadPin) for HAL_GPIO_ReadPin
    dht11.o(i.DHT11_IO_IN) refers to stm32f1xx_hal_gpio.o(i.HAL_GPIO_Init) for HAL_GPIO_Init
    dht11.o(i.DHT11_IO_OUT) refers to stm32f1xx_hal_gpio.o(i.HAL_GPIO_WritePin) for HAL_GPIO_WritePin
    dht11.o(i.DHT11_IO_OUT) refers to stm32f1xx_hal_gpio.o(i.HAL_GPIO_Init) for HAL_GPIO_Init
    dht11.o(i.DHT11_RST) refers to dht11.o(i.DHT11_IO_OUT) for DHT11_IO_OUT
    dht11.o(i.DHT11_RST) refers to stm32f1xx_hal_gpio.o(i.HAL_GPIO_WritePin) for HAL_GPIO_WritePin
    dht11.o(i.DHT11_RST) refers to stm32f1xx_hal.o(i.HAL_Delay) for HAL_Delay
    dht11.o(i.DHT11_RST) refers to dht11.o(i.Delay_us) for Delay_us
    dht11.o(i.DHT11_Read_Bit) refers to dht11.o(i.Delay_us) for Delay_us
    dht11.o(i.DHT11_Read_Bit) refers to stm32f1xx_hal_gpio.o(i.HAL_GPIO_ReadPin) for HAL_GPIO_ReadPin
    dht11.o(i.DHT11_Read_Byte) refers to dht11.o(i.DHT11_Read_Bit) for DHT11_Read_Bit
    dht11.o(i.DHT11_Read_Data) refers to dht11.o(i.DHT11_RST) for DHT11_RST
    dht11.o(i.DHT11_Read_Data) refers to dht11.o(i.DHT11_Check) for DHT11_Check
    dht11.o(i.DHT11_Read_Data) refers to dht11.o(i.DHT11_Read_Byte) for DHT11_Read_Byte
    dht11.o(i.Delay_us) refers to stm32f1xx_hal_tim.o(i.HAL_TIM_Base_Start) for HAL_TIM_Base_Start
    dht11.o(i.Delay_us) refers to stm32f1xx_hal_tim.o(i.HAL_TIM_Base_Stop) for HAL_TIM_Base_Stop
    dht11.o(i.Delay_us) refers to main.o(.bss) for htim4
    app.o(i.app_dlgcallback) refers to vkey.o(i.key_scan__scan) for key_scan__scan
    app.o(i.app_dlgcallback) refers to vmsgexec.o(i.vwm_create_timer) for vwm_create_timer
    app.o(i.app_dlgcallback) refers to elog.o(i.elog_output) for elog_output
    app.o(i.app_dlgcallback) refers to vmsgexec.o(i.vwm_start_timer) for vwm_start_timer
    app.o(i.app_dlgcallback) refers to dht11.o(i.DHT11_Read_Data) for DHT11_Read_Data
    app.o(i.app_dlgcallback) refers to stm32f1xx_hal_gpio.o(i.HAL_GPIO_TogglePin) for HAL_GPIO_TogglePin
    app.o(i.app_dlgcallback) refers to vkey.o(i.key_scan__getkeystate) for key_scan__getkeystate
    app.o(i.app_dlgcallback) refers to app.o(.bss) for .bss
    app.o(i.app_dlgcallback) refers to app.o(.constdata) for .constdata
    app.o(i.app_init) refers to vmsgexec.o(i.msgexec_create_module) for msgexec_create_module
    app.o(i.app_init) refers to elog.o(i.elog_output) for elog_output
    app.o(i.app_init) refers to vkey.o(i.key_scan__init) for key_scan__init
    app.o(i.app_init) refers to app.o(.bss) for .bss
    app.o(i.app_init) refers to app.o(i.app_dlgcallback) for app_dlgcallback
    app.o(i.app_init) refers to app.o(.constdata) for .constdata
    tlsf.o(i.MAPPING_INSERT) refers to tlsf.o(i.ms_bit) for ms_bit
    tlsf.o(i.add_new_area) refers to memseta.o(.text) for __aeabi_memclr
    tlsf.o(i.add_new_area) refers to tlsf.o(i.process_area) for process_area
    tlsf.o(i.add_new_area) refers to tlsf.o(i.free_ex) for free_ex
    tlsf.o(i.calloc_ex) refers to tlsf.o(i.malloc_ex) for malloc_ex
    tlsf.o(i.calloc_ex) refers to memseta.o(.text) for __aeabi_memclr
    tlsf.o(i.destroy_memory_pool) refers to rt_cmsis.o(i.osMutexDelete) for osMutexDelete
    tlsf.o(i.dm_init) refers to tlsf.o(i.init_memory_pool) for init_memory_pool
    tlsf.o(i.dm_init) refers to tlsf.o(.bss) for .bss
    tlsf.o(i.free_ex) refers to tlsf.o(i.MAPPING_INSERT) for MAPPING_INSERT
    tlsf.o(i.free_ex) refers to tlsf.o(i.clear_bit) for clear_bit
    tlsf.o(i.free_ex) refers to tlsf.o(i.set_bit) for set_bit
    tlsf.o(i.free_ex) refers to tlsf.o(.data) for .data
    tlsf.o(i.init_memory_pool) refers to printfa.o(i.__0printf) for __2printf
    tlsf.o(i.init_memory_pool) refers to memseta.o(.text) for __aeabi_memclr
    tlsf.o(i.init_memory_pool) refers to rt_cmsis.o(i.osMutexCreate) for osMutexCreate
    tlsf.o(i.init_memory_pool) refers to tlsf.o(i.process_area) for process_area
    tlsf.o(i.init_memory_pool) refers to tlsf.o(i.free_ex) for free_ex
    tlsf.o(i.init_memory_pool) refers to tlsf.o(.data) for .data
    tlsf.o(i.init_memory_pool) refers to tlsf.o(.constdata) for .constdata
    tlsf.o(i.ls_bit) refers to tlsf.o(.constdata) for .constdata
    tlsf.o(i.malloc_ex) refers to tlsf.o(i.ms_bit) for ms_bit
    tlsf.o(i.malloc_ex) refers to tlsf.o(i.ls_bit) for ls_bit
    tlsf.o(i.malloc_ex) refers to tlsf.o(i.clear_bit) for clear_bit
    tlsf.o(i.malloc_ex) refers to tlsf.o(i.MAPPING_INSERT) for MAPPING_INSERT
    tlsf.o(i.malloc_ex) refers to tlsf.o(i.set_bit) for set_bit
    tlsf.o(i.malloc_ex) refers to tlsf.o(.data) for .data
    tlsf.o(i.ms_bit) refers to tlsf.o(.constdata) for .constdata
    tlsf.o(i.realloc_ex) refers to tlsf.o(i.malloc_ex) for malloc_ex
    tlsf.o(i.realloc_ex) refers to tlsf.o(i.free_ex) for free_ex
    tlsf.o(i.realloc_ex) refers to tlsf.o(i.MAPPING_INSERT) for MAPPING_INSERT
    tlsf.o(i.realloc_ex) refers to tlsf.o(i.clear_bit) for clear_bit
    tlsf.o(i.realloc_ex) refers to tlsf.o(i.set_bit) for set_bit
    tlsf.o(i.realloc_ex) refers to memcpya.o(.text) for __aeabi_memcpy
    tlsf.o(i.tlsf_calloc) refers to rt_cmsis.o(i.osMutexWait) for osMutexWait
    tlsf.o(i.tlsf_calloc) refers to tlsf.o(i.calloc_ex) for calloc_ex
    tlsf.o(i.tlsf_calloc) refers to rt_cmsis.o(i.osMutexRelease) for osMutexRelease
    tlsf.o(i.tlsf_calloc) refers to tlsf.o(.data) for .data
    tlsf.o(i.tlsf_free) refers to rt_cmsis.o(i.osMutexWait) for osMutexWait
    tlsf.o(i.tlsf_free) refers to tlsf.o(i.free_ex) for free_ex
    tlsf.o(i.tlsf_free) refers to rt_cmsis.o(i.osMutexRelease) for osMutexRelease
    tlsf.o(i.tlsf_free) refers to tlsf.o(.data) for .data
    tlsf.o(i.tlsf_malloc) refers to rt_cmsis.o(i.osMutexWait) for osMutexWait
    tlsf.o(i.tlsf_malloc) refers to tlsf.o(i.malloc_ex) for malloc_ex
    tlsf.o(i.tlsf_malloc) refers to rt_cmsis.o(i.osMutexRelease) for osMutexRelease
    tlsf.o(i.tlsf_malloc) refers to printfa.o(i.__0printf) for __2printf
    tlsf.o(i.tlsf_malloc) refers to tlsf.o(.data) for .data
    tlsf.o(i.tlsf_realloc) refers to rt_cmsis.o(i.osMutexWait) for osMutexWait
    tlsf.o(i.tlsf_realloc) refers to tlsf.o(i.realloc_ex) for realloc_ex
    tlsf.o(i.tlsf_realloc) refers to rt_cmsis.o(i.osMutexRelease) for osMutexRelease
    tlsf.o(i.tlsf_realloc) refers to tlsf.o(.data) for .data
    tlsf.o(.constdata) refers to tlsf.o(.bss) for os_mutex_cb_DYNMemMutex
    elog.o(i.elog_assert_set_hook) refers to elog.o(.data) for .data
    elog.o(i.elog_deinit) refers to elog_port.o(i.elog_port_deinit) for elog_port_deinit
    elog.o(i.elog_deinit) refers to elog.o(.bss) for .bss
    elog.o(i.elog_find_lvl) refers to elog.o(i.elog_output) for elog_output
    elog.o(i.elog_find_lvl) refers to strlen.o(.text) for strlen
    elog.o(i.elog_find_lvl) refers to strncmp.o(.text) for strncmp
    elog.o(i.elog_find_lvl) refers to elog.o(.constdata) for .constdata
    elog.o(i.elog_find_lvl) refers to elog.o(.data) for .data
    elog.o(i.elog_find_lvl) refers to elog.o(.bss) for .bss
    elog.o(i.elog_find_tag) refers to elog.o(i.elog_output) for elog_output
    elog.o(i.elog_find_tag) refers to strlen.o(.text) for strlen
    elog.o(i.elog_find_tag) refers to memchr.o(.text) for memchr
    elog.o(i.elog_find_tag) refers to elog.o(.constdata) for .constdata
    elog.o(i.elog_find_tag) refers to elog.o(.data) for .data
    elog.o(i.elog_find_tag) refers to elog.o(.bss) for .bss
    elog.o(i.elog_get_filter_tag_lvl) refers to elog.o(i.elog_output_lock) for elog_output_lock
    elog.o(i.elog_get_filter_tag_lvl) refers to elog.o(i.elog_output) for elog_output
    elog.o(i.elog_get_filter_tag_lvl) refers to strncmp.o(.text) for strncmp
    elog.o(i.elog_get_filter_tag_lvl) refers to elog.o(i.elog_output_unlock) for elog_output_unlock
    elog.o(i.elog_get_filter_tag_lvl) refers to elog.o(.data) for .data
    elog.o(i.elog_get_filter_tag_lvl) refers to elog.o(.constdata) for .constdata
    elog.o(i.elog_get_filter_tag_lvl) refers to elog.o(.bss) for .bss
    elog.o(i.elog_get_output_enabled) refers to elog.o(.bss) for .bss
    elog.o(i.elog_get_text_color_enabled) refers to elog.o(.bss) for .bss
    elog.o(i.elog_hexdump) refers to strstr.o(.text) for strstr
    elog.o(i.elog_hexdump) refers to elog.o(i.elog_output_lock) for elog_output_lock
    elog.o(i.elog_hexdump) refers to printfa.o(i.__0snprintf) for __2snprintf
    elog.o(i.elog_hexdump) refers to strncpy.o(.text) for strncpy
    elog.o(i.elog_hexdump) refers to elog_utils.o(i.elog_strcpy) for elog_strcpy
    elog.o(i.elog_hexdump) refers to elog_port.o(i.elog_port_output) for elog_port_output
    elog.o(i.elog_hexdump) refers to elog.o(i.elog_output_unlock) for elog_output_unlock
    elog.o(i.elog_hexdump) refers to elog.o(.bss) for .bss
    elog.o(i.elog_init) refers to elog_port.o(i.elog_port_init) for elog_port_init
    elog.o(i.elog_init) refers to elog.o(i.elog_output_lock_enabled) for elog_output_lock_enabled
    elog.o(i.elog_init) refers to elog.o(i.elog_set_filter_lvl) for elog_set_filter_lvl
    elog.o(i.elog_init) refers to memseta.o(.text) for __aeabi_memclr
    elog.o(i.elog_init) refers to elog.o(.bss) for .bss
    elog.o(i.elog_output) refers to strlen.o(.text) for strlen
    elog.o(i.elog_output) refers to elog.o(i.elog_get_filter_tag_lvl) for elog_get_filter_tag_lvl
    elog.o(i.elog_output) refers to strstr.o(.text) for strstr
    elog.o(i.elog_output) refers to elog.o(i.elog_output_lock) for elog_output_lock
    elog.o(i.elog_output) refers to elog_utils.o(i.elog_strcpy) for elog_strcpy
    elog.o(i.elog_output) refers to elog.o(i.get_fmt_enabled) for get_fmt_enabled
    elog.o(i.elog_output) refers to memseta.o(.text) for __aeabi_memset
    elog.o(i.elog_output) refers to elog_port.o(i.elog_port_get_time) for elog_port_get_time
    elog.o(i.elog_output) refers to elog_port.o(i.elog_port_get_p_info) for elog_port_get_p_info
    elog.o(i.elog_output) refers to elog_port.o(i.elog_port_get_t_info) for elog_port_get_t_info
    elog.o(i.elog_output) refers to printfa.o(i.__0snprintf) for __2snprintf
    elog.o(i.elog_output) refers to printfa.o(i.__0vsnprintf) for vsnprintf
    elog.o(i.elog_output) refers to elog_port.o(i.elog_port_output) for elog_port_output
    elog.o(i.elog_output) refers to elog.o(i.elog_output_unlock) for elog_output_unlock
    elog.o(i.elog_output) refers to elog.o(.data) for .data
    elog.o(i.elog_output) refers to elog.o(.constdata) for .constdata
    elog.o(i.elog_output) refers to elog.o(.bss) for .bss
    elog.o(i.elog_output_lock) refers to elog_port.o(i.elog_port_output_lock) for elog_port_output_lock
    elog.o(i.elog_output_lock) refers to elog.o(.bss) for .bss
    elog.o(i.elog_output_lock_enabled) refers to elog_port.o(i.elog_port_output_unlock) for elog_port_output_unlock
    elog.o(i.elog_output_lock_enabled) refers to elog_port.o(i.elog_port_output_lock) for elog_port_output_lock
    elog.o(i.elog_output_lock_enabled) refers to elog.o(.bss) for .bss
    elog.o(i.elog_output_unlock) refers to elog_port.o(i.elog_port_output_unlock) for elog_port_output_unlock
    elog.o(i.elog_output_unlock) refers to elog.o(.bss) for .bss
    elog.o(i.elog_raw) refers to elog.o(i.elog_output_lock) for elog_output_lock
    elog.o(i.elog_raw) refers to printfa.o(i.__0vsnprintf) for vsnprintf
    elog.o(i.elog_raw) refers to elog_port.o(i.elog_port_output) for elog_port_output
    elog.o(i.elog_raw) refers to elog.o(i.elog_output_unlock) for elog_output_unlock
    elog.o(i.elog_raw) refers to elog.o(.bss) for .bss
    elog.o(i.elog_set_filter) refers to elog.o(i.elog_set_filter_lvl) for elog_set_filter_lvl
    elog.o(i.elog_set_filter) refers to elog.o(i.elog_set_filter_tag) for elog_set_filter_tag
    elog.o(i.elog_set_filter) refers to elog.o(i.elog_set_filter_kw) for elog_set_filter_kw
    elog.o(i.elog_set_filter) refers to elog.o(i.elog_output) for elog_output
    elog.o(i.elog_set_filter) refers to elog.o(.data) for .data
    elog.o(i.elog_set_filter) refers to elog.o(.constdata) for .constdata
    elog.o(i.elog_set_filter_kw) refers to strncpy.o(.text) for strncpy
    elog.o(i.elog_set_filter_kw) refers to elog.o(.bss) for .bss
    elog.o(i.elog_set_filter_lvl) refers to elog.o(i.elog_output) for elog_output
    elog.o(i.elog_set_filter_lvl) refers to elog.o(.data) for .data
    elog.o(i.elog_set_filter_lvl) refers to elog.o(.constdata) for .constdata
    elog.o(i.elog_set_filter_lvl) refers to elog.o(.bss) for .bss
    elog.o(i.elog_set_filter_tag) refers to strncpy.o(.text) for strncpy
    elog.o(i.elog_set_filter_tag) refers to elog.o(.bss) for .bss
    elog.o(i.elog_set_filter_tag_lvl) refers to elog.o(i.elog_output) for elog_output
    elog.o(i.elog_set_filter_tag_lvl) refers to elog.o(i.elog_output_lock) for elog_output_lock
    elog.o(i.elog_set_filter_tag_lvl) refers to strncmp.o(.text) for strncmp
    elog.o(i.elog_set_filter_tag_lvl) refers to memseta.o(.text) for __aeabi_memclr
    elog.o(i.elog_set_filter_tag_lvl) refers to elog.o(i.elog_output_unlock) for elog_output_unlock
    elog.o(i.elog_set_filter_tag_lvl) refers to strncpy.o(.text) for strncpy
    elog.o(i.elog_set_filter_tag_lvl) refers to elog.o(.constdata) for .constdata
    elog.o(i.elog_set_filter_tag_lvl) refers to elog.o(.data) for .data
    elog.o(i.elog_set_filter_tag_lvl) refers to elog.o(.bss) for .bss
    elog.o(i.elog_set_fmt) refers to elog.o(i.elog_output) for elog_output
    elog.o(i.elog_set_fmt) refers to elog.o(.data) for .data
    elog.o(i.elog_set_fmt) refers to elog.o(.constdata) for .constdata
    elog.o(i.elog_set_fmt) refers to elog.o(.bss) for .bss
    elog.o(i.elog_set_output_enabled) refers to elog.o(.bss) for .bss
    elog.o(i.elog_set_text_color_enabled) refers to elog.o(.bss) for .bss
    elog.o(i.elog_start) refers to elog.o(i.elog_output) for elog_output
    elog.o(i.elog_start) refers to elog.o(.bss) for .bss
    elog.o(i.elog_start) refers to elog.o(.constdata) for .constdata
    elog.o(i.elog_stop) refers to elog.o(i.elog_output) for elog_output
    elog.o(i.elog_stop) refers to elog.o(.bss) for .bss
    elog.o(i.elog_stop) refers to elog.o(.constdata) for .constdata
    elog.o(i.get_fmt_enabled) refers to elog.o(i.elog_output) for elog_output
    elog.o(i.get_fmt_enabled) refers to elog.o(.data) for .data
    elog.o(i.get_fmt_enabled) refers to elog.o(.constdata) for .constdata
    elog.o(i.get_fmt_enabled) refers to elog.o(.bss) for .bss
    elog.o(.data) refers to elog.o(.conststring) for .conststring
    elog_utils.o(i.elog_cpyln) refers to elog.o(i.elog_output) for elog_output
    elog_utils.o(i.elog_cpyln) refers to strncmp.o(.text) for strncmp
    elog_utils.o(i.elog_cpyln) refers to elog_utils.o(.constdata) for .constdata
    elog_utils.o(i.elog_cpyln) refers to elog.o(.data) for elog_assert_hook
    elog_utils.o(i.elog_memcpy) refers to elog.o(i.elog_output) for elog_output
    elog_utils.o(i.elog_memcpy) refers to elog_utils.o(.constdata) for .constdata
    elog_utils.o(i.elog_memcpy) refers to elog.o(.data) for elog_assert_hook
    elog_utils.o(i.elog_strcpy) refers to elog.o(i.elog_output) for elog_output
    elog_utils.o(i.elog_strcpy) refers to elog_utils.o(.constdata) for .constdata
    elog_utils.o(i.elog_strcpy) refers to elog.o(.data) for elog_assert_hook
    elog_port.o(i.elog_port_output) refers to printfa.o(i.__0printf) for __2printf
    esp8266.o(i.ESP8266_Clear) refers to memseta.o(.text) for __aeabi_memclr
    esp8266.o(i.ESP8266_Clear) refers to esp8266.o(.bss) for .bss
    esp8266.o(i.ESP8266_Clear) refers to esp8266.o(.data) for .data
    esp8266.o(i.ESP8266_GetIPD) refers to esp8266.o(i.ESP8266_WaitRecive) for ESP8266_WaitRecive
    esp8266.o(i.ESP8266_GetIPD) refers to strstr.o(.text) for strstr
    esp8266.o(i.ESP8266_GetIPD) refers to strchr.o(.text) for strchr
    esp8266.o(i.ESP8266_GetIPD) refers to stm32f1xx_hal.o(i.HAL_Delay) for HAL_Delay
    esp8266.o(i.ESP8266_GetIPD) refers to esp8266.o(.bss) for .bss
    esp8266.o(i.ESP8266_Init) refers to esp8266.o(i.ESP8266_Clear) for ESP8266_Clear
    esp8266.o(i.ESP8266_Init) refers to printfa.o(i.__0printf) for __2printf
    esp8266.o(i.ESP8266_Init) refers to stm32f1xx_hal.o(i.HAL_Delay) for HAL_Delay
    esp8266.o(i.ESP8266_Init) refers to esp8266.o(i.ESP8266_SendCmd) for ESP8266_SendCmd
    esp8266.o(i.ESP8266_SendCmd) refers to strlen.o(.text) for strlen
    esp8266.o(i.ESP8266_SendCmd) refers to esp8266.o(i.Usart_SendString) for Usart_SendString
    esp8266.o(i.ESP8266_SendCmd) refers to esp8266.o(i.ESP8266_WaitRecive) for ESP8266_WaitRecive
    esp8266.o(i.ESP8266_SendCmd) refers to strstr.o(.text) for strstr
    esp8266.o(i.ESP8266_SendCmd) refers to esp8266.o(i.ESP8266_Clear) for ESP8266_Clear
    esp8266.o(i.ESP8266_SendCmd) refers to stm32f1xx_hal.o(i.HAL_Delay) for HAL_Delay
    esp8266.o(i.ESP8266_SendCmd) refers to main.o(.bss) for huart3
    esp8266.o(i.ESP8266_SendCmd) refers to esp8266.o(.bss) for .bss
    esp8266.o(i.ESP8266_SendData) refers to esp8266.o(i.ESP8266_Clear) for ESP8266_Clear
    esp8266.o(i.ESP8266_SendData) refers to printfa.o(i.__0sprintf) for __2sprintf
    esp8266.o(i.ESP8266_SendData) refers to esp8266.o(i.ESP8266_SendCmd) for ESP8266_SendCmd
    esp8266.o(i.ESP8266_SendData) refers to esp8266.o(i.Usart_SendString) for Usart_SendString
    esp8266.o(i.ESP8266_SendData) refers to main.o(.bss) for huart3
    esp8266.o(i.ESP8266_WaitRecive) refers to esp8266.o(.data) for .data
    esp8266.o(i.Usart_SendString) refers to stm32f1xx_hal_uart.o(i.HAL_UART_Transmit) for HAL_UART_Transmit
    esp8266.o(i.Usart_SendString) refers to stm32f1xx_hal_uart.o(i.HAL_UART_GetState) for HAL_UART_GetState
    rtx_conf_cm.o(.ARM.Collect$$$$000000FF) refers to rt_cmsis.o(i.osKernelInitialize) for osKernelInitialize
    rtx_conf_cm.o(.ARM.Collect$$$$000000FF) refers to rt_cmsis.o(i.osThreadCreate) for osThreadCreate
    rtx_conf_cm.o(.ARM.Collect$$$$000000FF) refers to rt_cmsis.o(i.osKernelStart) for osKernelStart
    rtx_conf_cm.o(.ARM.Collect$$$$000000FF) refers to rtx_conf_cm.o(.constdata) for .constdata
    rtx_conf_cm.o(.constdata) refers to main.o(i.main) for main
    rtx_conf_cm.o(.constdata) refers to rt_cmsis.o(i.osTimerThread) for osTimerThread
    rtx_conf_cm.o(.constdata) refers to rtx_conf_cm.o(.bss) for os_messageQ_q_osTimerMessageQ
    rt_cmsis.o(i.isrMessageGet) refers to rt_mailbox.o(i.isr_mbx_receive) for isr_mbx_receive
    rt_cmsis.o(i.isrMessagePut) refers to rt_mailbox.o(i.rt_mbx_check) for rt_mbx_check
    rt_cmsis.o(i.isrMessagePut) refers to rt_mailbox.o(i.isr_mbx_send) for isr_mbx_send
    rt_cmsis.o(i.isrSemaphoreRelease) refers to rt_cmsis.o(i.rt_id2obj) for rt_id2obj
    rt_cmsis.o(i.isrSemaphoreRelease) refers to rt_semaphore.o(i.isr_sem_send) for isr_sem_send
    rt_cmsis.o(i.isrSignalSet) refers to rt_cmsis.o(i.rt_tid2ptcb) for rt_tid2ptcb
    rt_cmsis.o(i.isrSignalSet) refers to rt_event.o(i.isr_evt_set) for isr_evt_set
    rt_cmsis.o(i.osDelay) refers to rt_cmsis.o(i.svcDelay) for svcDelay
    rt_cmsis.o(i.osKernelInitialize) refers to rt_cmsis.o(i.svcKernelInitialize) for svcKernelInitialize
    rt_cmsis.o(i.osKernelRunning) refers to rt_cmsis.o(i.svcKernelRunning) for svcKernelRunning
    rt_cmsis.o(i.osKernelRunning) refers to rt_cmsis.o(.data) for .data
    rt_cmsis.o(i.osKernelStart) refers to rtx_conf_cm.o(.constdata) for os_flags
    rt_cmsis.o(i.osKernelStart) refers to rt_cmsis.o(i.svcKernelStart) for svcKernelStart
    rt_cmsis.o(i.osKernelSysTick) refers to rt_cmsis.o(i.svcKernelSysTick) for svcKernelSysTick
    rt_cmsis.o(i.osMailAlloc) refers to rt_cmsis.o(i.sysMailAlloc) for sysMailAlloc
    rt_cmsis.o(i.osMailCAlloc) refers to rt_cmsis.o(i.sysMailAlloc) for sysMailAlloc
    rt_cmsis.o(i.osMailCAlloc) refers to rt_cmsis.o(i.rt_clr_box) for rt_clr_box
    rt_cmsis.o(i.osMailCreate) refers to rt_cmsis.o(i.svcMailCreate) for svcMailCreate
    rt_cmsis.o(i.osMailCreate) refers to rt_cmsis.o(.data) for .data
    rt_cmsis.o(i.osMailFree) refers to rt_cmsis.o(i.sysMailFree) for sysMailFree
    rt_cmsis.o(i.osMailGet) refers to rt_cmsis.o(i.osMessageGet) for osMessageGet
    rt_cmsis.o(i.osMailPut) refers to rt_cmsis.o(i.osMessagePut) for osMessagePut
    rt_cmsis.o(i.osMessageCreate) refers to rt_cmsis.o(i.svcMessageCreate) for svcMessageCreate
    rt_cmsis.o(i.osMessageCreate) refers to rt_cmsis.o(.data) for .data
    rt_cmsis.o(i.osMessageGet) refers to rt_cmsis.o(i.isrMessageGet) for isrMessageGet
    rt_cmsis.o(i.osMessageGet) refers to rt_cmsis.o(i.svcMessageGet) for svcMessageGet
    rt_cmsis.o(i.osMessagePut) refers to rt_cmsis.o(i.isrMessagePut) for isrMessagePut
    rt_cmsis.o(i.osMessagePut) refers to rt_cmsis.o(i.svcMessagePut) for svcMessagePut
    rt_cmsis.o(i.osMutexCreate) refers to rt_cmsis.o(i.svcMutexCreate) for svcMutexCreate
    rt_cmsis.o(i.osMutexCreate) refers to rt_cmsis.o(.data) for .data
    rt_cmsis.o(i.osMutexDelete) refers to rt_cmsis.o(i.svcMutexDelete) for svcMutexDelete
    rt_cmsis.o(i.osMutexRelease) refers to rt_cmsis.o(i.svcMutexRelease) for svcMutexRelease
    rt_cmsis.o(i.osMutexWait) refers to rt_cmsis.o(i.svcMutexWait) for svcMutexWait
    rt_cmsis.o(i.osPoolAlloc) refers to rt_cmsis.o(i.sysPoolAlloc) for sysPoolAlloc
    rt_cmsis.o(i.osPoolCAlloc) refers to rt_cmsis.o(i.rt_clr_box) for rt_clr_box
    rt_cmsis.o(i.osPoolCAlloc) refers to rt_cmsis.o(i.sysPoolAlloc) for sysPoolAlloc
    rt_cmsis.o(i.osPoolCreate) refers to rt_cmsis.o(i.svcPoolCreate) for svcPoolCreate
    rt_cmsis.o(i.osPoolCreate) refers to rt_cmsis.o(.data) for .data
    rt_cmsis.o(i.osPoolFree) refers to rt_cmsis.o(i.sysPoolFree) for sysPoolFree
    rt_cmsis.o(i.osSemaphoreCreate) refers to rt_cmsis.o(i.svcSemaphoreCreate) for svcSemaphoreCreate
    rt_cmsis.o(i.osSemaphoreCreate) refers to rt_cmsis.o(.data) for .data
    rt_cmsis.o(i.osSemaphoreDelete) refers to rt_cmsis.o(i.svcSemaphoreDelete) for svcSemaphoreDelete
    rt_cmsis.o(i.osSemaphoreRelease) refers to rt_cmsis.o(i.isrSemaphoreRelease) for isrSemaphoreRelease
    rt_cmsis.o(i.osSemaphoreRelease) refers to rt_cmsis.o(i.svcSemaphoreRelease) for svcSemaphoreRelease
    rt_cmsis.o(i.osSemaphoreWait) refers to rt_cmsis.o(i.svcSemaphoreWait) for svcSemaphoreWait
    rt_cmsis.o(i.osSignalClear) refers to rt_cmsis.o(i.svcSignalClear) for svcSignalClear
    rt_cmsis.o(i.osSignalSet) refers to rt_cmsis.o(i.isrSignalSet) for isrSignalSet
    rt_cmsis.o(i.osSignalSet) refers to rt_cmsis.o(i.svcSignalSet) for svcSignalSet
    rt_cmsis.o(i.osSignalWait) refers to rt_cmsis.o(i.svcSignalWait) for svcSignalWait
    rt_cmsis.o(i.osThreadCreate) refers to rt_cmsis.o(i.svcThreadCreate) for svcThreadCreate
    rt_cmsis.o(i.osThreadCreate) refers to rt_cmsis.o(.data) for .data
    rt_cmsis.o(i.osThreadExit) refers to rt_cmsis.o(i.svcThreadGetId) for svcThreadGetId
    rt_cmsis.o(i.osThreadExit) refers to rt_cmsis.o(i.svcThreadTerminate) for svcThreadTerminate
    rt_cmsis.o(i.osThreadGetId) refers to rt_cmsis.o(i.svcThreadGetId) for svcThreadGetId
    rt_cmsis.o(i.osThreadGetPriority) refers to rt_cmsis.o(i.svcThreadGetPriority) for svcThreadGetPriority
    rt_cmsis.o(i.osThreadSetPriority) refers to rt_cmsis.o(i.svcThreadSetPriority) for svcThreadSetPriority
    rt_cmsis.o(i.osThreadTerminate) refers to rt_cmsis.o(i.svcThreadTerminate) for svcThreadTerminate
    rt_cmsis.o(i.osThreadYield) refers to rt_cmsis.o(i.svcThreadYield) for svcThreadYield
    rt_cmsis.o(i.osTimerCall) refers to rt_cmsis.o(i.svcTimerCall) for svcTimerCall
    rt_cmsis.o(i.osTimerCreate) refers to rt_cmsis.o(i.svcTimerCreate) for svcTimerCreate
    rt_cmsis.o(i.osTimerCreate) refers to rt_cmsis.o(.data) for .data
    rt_cmsis.o(i.osTimerDelete) refers to rt_cmsis.o(i.svcTimerDelete) for svcTimerDelete
    rt_cmsis.o(i.osTimerStart) refers to rt_cmsis.o(i.svcTimerStart) for svcTimerStart
    rt_cmsis.o(i.osTimerStop) refers to rt_cmsis.o(i.svcTimerStop) for svcTimerStop
    rt_cmsis.o(i.osTimerThread) refers to rt_cmsis.o(i.osMessageGet) for osMessageGet
    rt_cmsis.o(i.osTimerThread) refers to rt_cmsis.o(i.osTimerCall) for osTimerCall
    rt_cmsis.o(i.osTimerThread) refers to rtx_conf_cm.o(.data) for osMessageQId_osTimerMessageQ
    rt_cmsis.o(i.os_resume) refers to rt_system.o(i.rt_resume) for rt_resume
    rt_cmsis.o(i.os_suspend) refers to rt_system.o(i.rt_suspend) for rt_suspend
    rt_cmsis.o(i.rt_ms2tick) refers to rtx_conf_cm.o(.constdata) for os_clockrate
    rt_cmsis.o(i.rt_timer_insert) refers to rt_cmsis.o(.data) for .data
    rt_cmsis.o(i.rt_timer_remove) refers to rt_cmsis.o(.data) for .data
    rt_cmsis.o(i.svcDelay) refers to rt_cmsis.o(i.rt_ms2tick) for rt_ms2tick
    rt_cmsis.o(i.svcDelay) refers to rt_time.o(i.rt_dly_wait) for rt_dly_wait
    rt_cmsis.o(i.svcKernelInitialize) refers to rt_memory.o(i.rt_init_mem) for rt_init_mem
    rt_cmsis.o(i.svcKernelInitialize) refers to rt_task.o(i.rt_sys_init) for rt_sys_init
    rt_cmsis.o(i.svcKernelInitialize) refers to rt_cmsis.o(i.svcMessageCreate) for svcMessageCreate
    rt_cmsis.o(i.svcKernelInitialize) refers to rt_cmsis.o(i.svcThreadCreate) for svcThreadCreate
    rt_cmsis.o(i.svcKernelInitialize) refers to rt_cmsis.o(.data) for .data
    rt_cmsis.o(i.svcKernelInitialize) refers to rtx_conf_cm.o(.bss) for os_stack_mem
    rt_cmsis.o(i.svcKernelInitialize) refers to rtx_conf_cm.o(.constdata) for os_stack_sz
    rt_cmsis.o(i.svcKernelInitialize) refers to rt_task.o(.data) for os_tsk
    rt_cmsis.o(i.svcKernelInitialize) refers to rtx_conf_cm.o(.constdata) for os_messageQ_def_osTimerMessageQ
    rt_cmsis.o(i.svcKernelInitialize) refers to rtx_conf_cm.o(.data) for osMessageQId_osTimerMessageQ
    rt_cmsis.o(i.svcKernelInitialize) refers to rtx_conf_cm.o(.constdata) for os_thread_def_osTimerThread
    rt_cmsis.o(i.svcKernelInitialize) refers to rtx_conf_cm.o(.data) for osThreadId_osTimerThread
    rt_cmsis.o(i.svcKernelRunning) refers to rt_cmsis.o(.data) for .data
    rt_cmsis.o(i.svcKernelStart) refers to rt_task.o(i.rt_tsk_prio) for rt_tsk_prio
    rt_cmsis.o(i.svcKernelStart) refers to rt_task.o(i.rt_sys_start) for rt_sys_start
    rt_cmsis.o(i.svcKernelStart) refers to rt_cmsis.o(.data) for .data
    rt_cmsis.o(i.svcKernelStart) refers to rt_task.o(.data) for os_tsk
    rt_cmsis.o(i.svcKernelSysTick) refers to rt_system.o(i.os_tick_val) for os_tick_val
    rt_cmsis.o(i.svcKernelSysTick) refers to rt_system.o(i.os_tick_ovf) for os_tick_ovf
    rt_cmsis.o(i.svcKernelSysTick) refers to rtx_conf_cm.o(.constdata) for os_trv
    rt_cmsis.o(i.svcKernelSysTick) refers to rt_time.o(.data) for os_time
    rt_cmsis.o(i.svcMailCreate) refers to rt_membox.o(i._init_box) for _init_box
    rt_cmsis.o(i.svcMailCreate) refers to rt_mailbox.o(i.rt_mbx_init) for rt_mbx_init
    rt_cmsis.o(i.svcMessageCreate) refers to rt_mailbox.o(i.rt_mbx_init) for rt_mbx_init
    rt_cmsis.o(i.svcMessageGet) refers to rt_cmsis.o(i.rt_ms2tick) for rt_ms2tick
    rt_cmsis.o(i.svcMessageGet) refers to rt_mailbox.o(i.rt_mbx_wait) for rt_mbx_wait
    rt_cmsis.o(i.svcMessagePut) refers to rt_cmsis.o(i.rt_ms2tick) for rt_ms2tick
    rt_cmsis.o(i.svcMessagePut) refers to rt_mailbox.o(i.rt_mbx_send) for rt_mbx_send
    rt_cmsis.o(i.svcMutexCreate) refers to rt_mutex.o(i.rt_mut_init) for rt_mut_init
    rt_cmsis.o(i.svcMutexDelete) refers to rt_cmsis.o(i.rt_id2obj) for rt_id2obj
    rt_cmsis.o(i.svcMutexDelete) refers to rt_mutex.o(i.rt_mut_delete) for rt_mut_delete
    rt_cmsis.o(i.svcMutexRelease) refers to rt_cmsis.o(i.rt_id2obj) for rt_id2obj
    rt_cmsis.o(i.svcMutexRelease) refers to rt_mutex.o(i.rt_mut_release) for rt_mut_release
    rt_cmsis.o(i.svcMutexWait) refers to rt_cmsis.o(i.rt_id2obj) for rt_id2obj
    rt_cmsis.o(i.svcMutexWait) refers to rt_cmsis.o(i.rt_ms2tick) for rt_ms2tick
    rt_cmsis.o(i.svcMutexWait) refers to rt_mutex.o(i.rt_mut_wait) for rt_mut_wait
    rt_cmsis.o(i.svcPoolCreate) refers to rt_membox.o(i._init_box) for _init_box
    rt_cmsis.o(i.svcSemaphoreCreate) refers to rt_semaphore.o(i.rt_sem_init) for rt_sem_init
    rt_cmsis.o(i.svcSemaphoreDelete) refers to rt_cmsis.o(i.rt_id2obj) for rt_id2obj
    rt_cmsis.o(i.svcSemaphoreDelete) refers to rt_semaphore.o(i.rt_sem_delete) for rt_sem_delete
    rt_cmsis.o(i.svcSemaphoreRelease) refers to rt_cmsis.o(i.rt_id2obj) for rt_id2obj
    rt_cmsis.o(i.svcSemaphoreRelease) refers to rt_semaphore.o(i.rt_sem_send) for rt_sem_send
    rt_cmsis.o(i.svcSemaphoreWait) refers to rt_cmsis.o(i.rt_id2obj) for rt_id2obj
    rt_cmsis.o(i.svcSemaphoreWait) refers to rt_cmsis.o(i.rt_ms2tick) for rt_ms2tick
    rt_cmsis.o(i.svcSemaphoreWait) refers to rt_semaphore.o(i.rt_sem_wait) for rt_sem_wait
    rt_cmsis.o(i.svcSignalClear) refers to rt_cmsis.o(i.rt_tid2ptcb) for rt_tid2ptcb
    rt_cmsis.o(i.svcSignalClear) refers to rt_event.o(i.rt_evt_clr) for rt_evt_clr
    rt_cmsis.o(i.svcSignalSet) refers to rt_cmsis.o(i.rt_tid2ptcb) for rt_tid2ptcb
    rt_cmsis.o(i.svcSignalSet) refers to rt_event.o(i.rt_evt_set) for rt_evt_set
    rt_cmsis.o(i.svcSignalWait) refers to rt_cmsis.o(i.rt_ms2tick) for rt_ms2tick
    rt_cmsis.o(i.svcSignalWait) refers to rt_event.o(i.rt_evt_wait) for rt_evt_wait
    rt_cmsis.o(i.svcSignalWait) refers to rt_task.o(.data) for os_tsk
    rt_cmsis.o(i.svcThreadCreate) refers to rt_memory.o(i.rt_alloc_mem) for rt_alloc_mem
    rt_cmsis.o(i.svcThreadCreate) refers to rt_task.o(i.rt_tsk_create) for rt_tsk_create
    rt_cmsis.o(i.svcThreadCreate) refers to rt_memory.o(i.rt_free_mem) for rt_free_mem
    rt_cmsis.o(i.svcThreadCreate) refers to rtx_conf_cm.o(.bss) for os_stack_mem
    rt_cmsis.o(i.svcThreadCreate) refers to rtx_conf_cm.o(.bss) for os_active_TCB
    rt_cmsis.o(i.svcThreadCreate) refers to rt_cmsis.o(i.osThreadExit) for osThreadExit
    rt_cmsis.o(i.svcThreadGetId) refers to rt_task.o(i.rt_tsk_self) for rt_tsk_self
    rt_cmsis.o(i.svcThreadGetId) refers to rtx_conf_cm.o(.bss) for os_active_TCB
    rt_cmsis.o(i.svcThreadGetPriority) refers to rt_cmsis.o(i.rt_tid2ptcb) for rt_tid2ptcb
    rt_cmsis.o(i.svcThreadSetPriority) refers to rt_cmsis.o(i.rt_tid2ptcb) for rt_tid2ptcb
    rt_cmsis.o(i.svcThreadSetPriority) refers to rt_task.o(i.rt_tsk_prio) for rt_tsk_prio
    rt_cmsis.o(i.svcThreadTerminate) refers to rt_cmsis.o(i.rt_tid2ptcb) for rt_tid2ptcb
    rt_cmsis.o(i.svcThreadTerminate) refers to rt_task.o(i.rt_tsk_delete) for rt_tsk_delete
    rt_cmsis.o(i.svcThreadTerminate) refers to rt_memory.o(i.rt_free_mem) for rt_free_mem
    rt_cmsis.o(i.svcThreadTerminate) refers to rtx_conf_cm.o(.bss) for os_stack_mem
    rt_cmsis.o(i.svcThreadYield) refers to rt_task.o(i.rt_tsk_pass) for rt_tsk_pass
    rt_cmsis.o(i.svcTimerCall) refers to rt_cmsis.o(i.rt_id2obj) for rt_id2obj
    rt_cmsis.o(i.svcTimerCreate) refers to rtx_conf_cm.o(.data) for osThreadId_osTimerThread
    rt_cmsis.o(i.svcTimerDelete) refers to rt_cmsis.o(i.rt_id2obj) for rt_id2obj
    rt_cmsis.o(i.svcTimerDelete) refers to rt_cmsis.o(i.rt_timer_remove) for rt_timer_remove
    rt_cmsis.o(i.svcTimerStart) refers to rt_cmsis.o(i.rt_id2obj) for rt_id2obj
    rt_cmsis.o(i.svcTimerStart) refers to uldiv.o(.text) for __aeabi_uldivmod
    rt_cmsis.o(i.svcTimerStart) refers to rt_cmsis.o(i.rt_timer_remove) for rt_timer_remove
    rt_cmsis.o(i.svcTimerStart) refers to rt_cmsis.o(i.rt_timer_insert) for rt_timer_insert
    rt_cmsis.o(i.svcTimerStart) refers to rtx_conf_cm.o(.constdata) for os_clockrate
    rt_cmsis.o(i.svcTimerStop) refers to rt_cmsis.o(i.rt_id2obj) for rt_id2obj
    rt_cmsis.o(i.svcTimerStop) refers to rt_cmsis.o(i.rt_timer_remove) for rt_timer_remove
    rt_cmsis.o(i.sysMailAlloc) refers to rt_membox.o(i.rt_alloc_box) for rt_alloc_box
    rt_cmsis.o(i.sysMailAlloc) refers to rt_list.o(i.rt_put_prio) for rt_put_prio
    rt_cmsis.o(i.sysMailAlloc) refers to rt_cmsis.o(i.rt_ms2tick) for rt_ms2tick
    rt_cmsis.o(i.sysMailAlloc) refers to rt_task.o(i.rt_block) for rt_block
    rt_cmsis.o(i.sysMailAlloc) refers to rt_task.o(.data) for os_tsk
    rt_cmsis.o(i.sysMailFree) refers to rt_membox.o(i.rt_free_box) for rt_free_box
    rt_cmsis.o(i.sysMailFree) refers to rt_list.o(i.rt_psq_enq) for rt_psq_enq
    rt_cmsis.o(i.sysMailFree) refers to rt_system.o(i.rt_psh_req) for rt_psh_req
    rt_cmsis.o(i.sysMailFree) refers to rt_membox.o(i.rt_alloc_box) for rt_alloc_box
    rt_cmsis.o(i.sysMailFree) refers to rt_list.o(i.rt_get_first) for rt_get_first
    rt_cmsis.o(i.sysMailFree) refers to hal_cm.o(i.rt_ret_val) for rt_ret_val
    rt_cmsis.o(i.sysMailFree) refers to rt_list.o(i.rt_rmv_dly) for rt_rmv_dly
    rt_cmsis.o(i.sysMailFree) refers to rt_task.o(i.rt_dispatch) for rt_dispatch
    rt_cmsis.o(i.sysPoolAlloc) refers to rt_membox.o(i.rt_alloc_box) for rt_alloc_box
    rt_cmsis.o(i.sysPoolFree) refers to rt_membox.o(i.rt_free_box) for rt_free_box
    rt_cmsis.o(i.sysTimerTick) refers to rt_cmsis.o(i.isrMessagePut) for isrMessagePut
    rt_cmsis.o(i.sysTimerTick) refers to rtx_conf_cm.o(i.os_error) for os_error
    rt_cmsis.o(i.sysTimerTick) refers to rt_cmsis.o(i.rt_timer_insert) for rt_timer_insert
    rt_cmsis.o(i.sysTimerTick) refers to rt_cmsis.o(.data) for .data
    rt_cmsis.o(i.sysTimerTick) refers to rtx_conf_cm.o(.data) for osMessageQId_osTimerMessageQ
    rt_cmsis.o(i.sysUserTimerUpdate) refers to rt_cmsis.o(i.sysTimerTick) for sysTimerTick
    rt_cmsis.o(i.sysUserTimerUpdate) refers to rt_cmsis.o(.data) for .data
    rt_cmsis.o(i.sysUserTimerWakeupTime) refers to rt_cmsis.o(.data) for .data
    rt_time.o(i.rt_dly_wait) refers to rt_task.o(i.rt_block) for rt_block
    rt_time.o(i.rt_itv_set) refers to rt_task.o(.data) for os_tsk
    rt_time.o(i.rt_itv_set) refers to rt_time.o(.data) for .data
    rt_time.o(i.rt_itv_wait) refers to rt_task.o(i.rt_block) for rt_block
    rt_time.o(i.rt_itv_wait) refers to rt_task.o(.data) for os_tsk
    rt_time.o(i.rt_itv_wait) refers to rt_time.o(.data) for .data
    rt_time.o(i.rt_time_get) refers to rt_time.o(.data) for .data
    rt_task.o(i.rt_block) refers to rt_list.o(i.rt_put_dly) for rt_put_dly
    rt_task.o(i.rt_block) refers to rt_list.o(i.rt_get_first) for rt_get_first
    rt_task.o(i.rt_block) refers to rt_task.o(i.rt_switch_req) for rt_switch_req
    rt_task.o(i.rt_block) refers to rt_task.o(.data) for .data
    rt_task.o(i.rt_block) refers to rt_list.o(.bss) for os_rdy
    rt_task.o(i.rt_dispatch) refers to rt_list.o(i.rt_put_rdy_first) for rt_put_rdy_first
    rt_task.o(i.rt_dispatch) refers to rt_task.o(i.rt_switch_req) for rt_switch_req
    rt_task.o(i.rt_dispatch) refers to rt_list.o(i.rt_get_first) for rt_get_first
    rt_task.o(i.rt_dispatch) refers to rt_list.o(i.rt_put_prio) for rt_put_prio
    rt_task.o(i.rt_dispatch) refers to rt_task.o(.data) for .data
    rt_task.o(i.rt_dispatch) refers to rt_list.o(.bss) for os_rdy
    rt_task.o(i.rt_init_context) refers to rt_membox.o(i.rt_alloc_box) for rt_alloc_box
    rt_task.o(i.rt_init_context) refers to hal_cm.o(i.rt_init_stack) for rt_init_stack
    rt_task.o(i.rt_init_context) refers to rtx_conf_cm.o(.bss) for mp_stk
    rt_task.o(i.rt_switch_req) refers to hal_cm.o(i.dbg_task_switch) for dbg_task_switch
    rt_task.o(i.rt_switch_req) refers to rt_task.o(.data) for .data
    rt_task.o(i.rt_switch_req) refers to hal_cm.o(.data) for dbg_msg
    rt_task.o(i.rt_sys_init) refers to hal_cm.o(i.dbg_init) for dbg_init
    rt_task.o(i.rt_sys_init) refers to rt_membox.o(i._init_box) for _init_box
    rt_task.o(i.rt_sys_init) refers to rt_task.o(i.rt_init_context) for rt_init_context
    rt_task.o(i.rt_sys_init) refers to rt_robin.o(i.rt_init_robin) for rt_init_robin
    rt_task.o(i.rt_sys_init) refers to rtx_conf_cm.o(.bss) for os_active_TCB
    rt_task.o(i.rt_sys_init) refers to rtx_conf_cm.o(.constdata) for os_maxtaskrun
    rt_task.o(i.rt_sys_init) refers to rtx_conf_cm.o(.constdata) for mp_tcb_size
    rt_task.o(i.rt_sys_init) refers to rtx_conf_cm.o(.bss) for mp_tcb
    rt_task.o(i.rt_sys_init) refers to rtx_conf_cm.o(.constdata) for os_stackinfo
    rt_task.o(i.rt_sys_init) refers to rtx_conf_cm.o(.constdata) for mp_stk_size
    rt_task.o(i.rt_sys_init) refers to rtx_conf_cm.o(.bss) for mp_stk
    rt_task.o(i.rt_sys_init) refers to rtx_conf_cm.o(.constdata) for mp_tmr_size
    rt_task.o(i.rt_sys_init) refers to rtx_conf_cm.o(.data) for m_tmr
    rt_task.o(i.rt_sys_init) refers to rt_task.o(.bss) for .bss
    rt_task.o(i.rt_sys_init) refers to rtx_conf_cm.o(i.os_idle_demon) for os_idle_demon
    rt_task.o(i.rt_sys_init) refers to rt_list.o(.bss) for os_rdy
    rt_task.o(i.rt_sys_init) refers to rt_task.o(.data) for .data
    rt_task.o(i.rt_sys_init) refers to rtx_conf_cm.o(.bss) for os_fifo
    rt_task.o(i.rt_sys_init) refers to rtx_conf_cm.o(.constdata) for os_fifo_size
    rt_task.o(i.rt_sys_start) refers to rt_system.o(i.os_tick_init) for os_tick_init
    rt_task.o(i.rt_sys_start) refers to rt_system.o(.data) for os_tick_irqn
    rt_task.o(i.rt_tsk_create) refers to rt_membox.o(i.rt_alloc_box) for rt_alloc_box
    rt_task.o(i.rt_tsk_create) refers to rt_task.o(i.rt_init_context) for rt_init_context
    rt_task.o(i.rt_tsk_create) refers to hal_cm.o(i.dbg_task_notify) for dbg_task_notify
    rt_task.o(i.rt_tsk_create) refers to rt_task.o(i.rt_dispatch) for rt_dispatch
    rt_task.o(i.rt_tsk_create) refers to rtx_conf_cm.o(.bss) for mp_tcb
    rt_task.o(i.rt_tsk_create) refers to rtx_conf_cm.o(.bss) for os_active_TCB
    rt_task.o(i.rt_tsk_create) refers to rtx_conf_cm.o(.constdata) for os_maxtaskrun
    rt_task.o(i.rt_tsk_create) refers to hal_cm.o(.data) for dbg_msg
    rt_task.o(i.rt_tsk_delete) refers to hal_cm3.o(.emb_text) for rt_get_PSP
    rt_task.o(i.rt_tsk_delete) refers to rt_system.o(i.rt_stk_check) for rt_stk_check
    rt_task.o(i.rt_tsk_delete) refers to rt_list.o(i.rt_get_first) for rt_get_first
    rt_task.o(i.rt_tsk_delete) refers to hal_cm.o(i.rt_ret_val) for rt_ret_val
    rt_task.o(i.rt_tsk_delete) refers to rt_list.o(i.rt_rmv_dly) for rt_rmv_dly
    rt_task.o(i.rt_tsk_delete) refers to rt_list.o(i.rt_put_prio) for rt_put_prio
    rt_task.o(i.rt_tsk_delete) refers to rt_membox.o(i.rt_free_box) for rt_free_box
    rt_task.o(i.rt_tsk_delete) refers to hal_cm.o(i.dbg_task_notify) for dbg_task_notify
    rt_task.o(i.rt_tsk_delete) refers to rt_list.o(i.rt_rmv_list) for rt_rmv_list
    rt_task.o(i.rt_tsk_delete) refers to rt_task.o(i.rt_dispatch) for rt_dispatch
    rt_task.o(i.rt_tsk_delete) refers to hal_cm.o(.data) for dbg_msg
    rt_task.o(i.rt_tsk_delete) refers to rtx_conf_cm.o(.bss) for os_active_TCB
    rt_task.o(i.rt_tsk_delete) refers to rt_task.o(.data) for .data
    rt_task.o(i.rt_tsk_delete) refers to rt_list.o(.bss) for os_rdy
    rt_task.o(i.rt_tsk_delete) refers to rtx_conf_cm.o(.bss) for mp_stk
    rt_task.o(i.rt_tsk_delete) refers to rtx_conf_cm.o(.bss) for mp_tcb
    rt_task.o(i.rt_tsk_delete) refers to rtx_conf_cm.o(.constdata) for os_maxtaskrun
    rt_task.o(i.rt_tsk_pass) refers to rt_list.o(i.rt_get_same_rdy_prio) for rt_get_same_rdy_prio
    rt_task.o(i.rt_tsk_pass) refers to rt_list.o(i.rt_put_prio) for rt_put_prio
    rt_task.o(i.rt_tsk_pass) refers to rt_task.o(i.rt_switch_req) for rt_switch_req
    rt_task.o(i.rt_tsk_pass) refers to rt_task.o(.data) for .data
    rt_task.o(i.rt_tsk_pass) refers to rt_list.o(.bss) for os_rdy
    rt_task.o(i.rt_tsk_prio) refers to rt_list.o(i.rt_put_prio) for rt_put_prio
    rt_task.o(i.rt_tsk_prio) refers to rt_list.o(i.rt_resort_prio) for rt_resort_prio
    rt_task.o(i.rt_tsk_prio) refers to rt_list.o(i.rt_get_first) for rt_get_first
    rt_task.o(i.rt_tsk_prio) refers to rt_task.o(i.rt_dispatch) for rt_dispatch
    rt_task.o(i.rt_tsk_prio) refers to rt_task.o(.data) for .data
    rt_task.o(i.rt_tsk_prio) refers to rtx_conf_cm.o(.constdata) for os_maxtaskrun
    rt_task.o(i.rt_tsk_prio) refers to rtx_conf_cm.o(.bss) for os_active_TCB
    rt_task.o(i.rt_tsk_prio) refers to rt_list.o(.bss) for os_rdy
    rt_task.o(i.rt_tsk_self) refers to rt_task.o(.data) for .data
    rt_system.o(i.os_tick_init) refers to rtx_conf_cm.o(.constdata) for os_trv
    rt_system.o(i.os_tick_val) refers to rtx_conf_cm.o(.constdata) for os_trv
    rt_system.o(i.rt_pop_req) refers to rt_list.o(i.rt_put_rdy_first) for rt_put_rdy_first
    rt_system.o(i.rt_pop_req) refers to rt_semaphore.o(i.rt_sem_psh) for rt_sem_psh
    rt_system.o(i.rt_pop_req) refers to rt_list.o(i.rt_get_first) for rt_get_first
    rt_system.o(i.rt_pop_req) refers to rt_task.o(i.rt_switch_req) for rt_switch_req
    rt_system.o(i.rt_pop_req) refers to rt_event.o(i.rt_evt_psh) for rt_evt_psh
    rt_system.o(i.rt_pop_req) refers to rt_mailbox.o(i.rt_mbx_psh) for rt_mbx_psh
    rt_system.o(i.rt_pop_req) refers to rt_task.o(.data) for os_tsk
    rt_system.o(i.rt_pop_req) refers to rtx_conf_cm.o(.bss) for os_fifo
    rt_system.o(i.rt_pop_req) refers to rt_list.o(.bss) for os_rdy
    rt_system.o(i.rt_psh_req) refers to rt_system.o(.data) for .data
    rt_system.o(i.rt_resume) refers to rt_list.o(i.rt_put_rdy_first) for rt_put_rdy_first
    rt_system.o(i.rt_resume) refers to rt_list.o(i.rt_dec_dly) for rt_dec_dly
    rt_system.o(i.rt_resume) refers to rt_cmsis.o(i.sysUserTimerUpdate) for sysUserTimerUpdate
    rt_system.o(i.rt_resume) refers to rt_list.o(i.rt_get_first) for rt_get_first
    rt_system.o(i.rt_resume) refers to rt_task.o(i.rt_switch_req) for rt_switch_req
    rt_system.o(i.rt_resume) refers to rt_system.o(i.rt_tsk_unlock) for rt_tsk_unlock
    rt_system.o(i.rt_resume) refers to rt_task.o(.data) for os_tsk
    rt_system.o(i.rt_resume) refers to rt_robin.o(.data) for os_robin
    rt_system.o(i.rt_resume) refers to rt_list.o(.bss) for os_dly
    rt_system.o(i.rt_resume) refers to rt_time.o(.data) for os_time
    rt_system.o(i.rt_stk_check) refers to rtx_conf_cm.o(i.os_error) for os_error
    rt_system.o(i.rt_stk_check) refers to rt_task.o(.data) for os_tsk
    rt_system.o(i.rt_suspend) refers to rt_system.o(i.rt_tsk_lock) for rt_tsk_lock
    rt_system.o(i.rt_suspend) refers to rt_cmsis.o(i.sysUserTimerWakeupTime) for sysUserTimerWakeupTime
    rt_system.o(i.rt_suspend) refers to rt_list.o(.bss) for os_dly
    rt_system.o(i.rt_systick) refers to rt_list.o(i.rt_put_rdy_first) for rt_put_rdy_first
    rt_system.o(i.rt_systick) refers to rt_robin.o(i.rt_chk_robin) for rt_chk_robin
    rt_system.o(i.rt_systick) refers to rt_list.o(i.rt_dec_dly) for rt_dec_dly
    rt_system.o(i.rt_systick) refers to rt_cmsis.o(i.sysTimerTick) for sysTimerTick
    rt_system.o(i.rt_systick) refers to rt_list.o(i.rt_get_first) for rt_get_first
    rt_system.o(i.rt_systick) refers to rt_task.o(i.rt_switch_req) for rt_switch_req
    rt_system.o(i.rt_systick) refers to rt_task.o(.data) for os_tsk
    rt_system.o(i.rt_systick) refers to rt_time.o(.data) for os_time
    rt_system.o(i.rt_systick) refers to rt_list.o(.bss) for os_rdy
    rt_system.o(i.rt_tsk_lock) refers to rt_system.o(.data) for .data
    rt_system.o(i.rt_tsk_unlock) refers to rt_system.o(.data) for .data
    rt_event.o(i.isr_evt_set) refers to rt_list.o(i.rt_psq_enq) for rt_psq_enq
    rt_event.o(i.isr_evt_set) refers to rt_system.o(i.rt_psh_req) for rt_psh_req
    rt_event.o(i.isr_evt_set) refers to rtx_conf_cm.o(.bss) for os_active_TCB
    rt_event.o(i.rt_evt_clr) refers to rtx_conf_cm.o(.bss) for os_active_TCB
    rt_event.o(i.rt_evt_get) refers to rt_task.o(.data) for os_tsk
    rt_event.o(i.rt_evt_psh) refers to rt_list.o(i.rt_rmv_dly) for rt_rmv_dly
    rt_event.o(i.rt_evt_psh) refers to hal_cm.o(i.rt_ret_val2) for rt_ret_val2
    rt_event.o(i.rt_evt_psh) refers to rt_list.o(i.rt_put_prio) for rt_put_prio
    rt_event.o(i.rt_evt_psh) refers to rt_list.o(.bss) for os_rdy
    rt_event.o(i.rt_evt_set) refers to rt_list.o(i.rt_rmv_dly) for rt_rmv_dly
    rt_event.o(i.rt_evt_set) refers to hal_cm.o(i.rt_ret_val2) for rt_ret_val2
    rt_event.o(i.rt_evt_set) refers to rt_task.o(i.rt_dispatch) for rt_dispatch
    rt_event.o(i.rt_evt_set) refers to rtx_conf_cm.o(.bss) for os_active_TCB
    rt_event.o(i.rt_evt_wait) refers to rt_task.o(i.rt_block) for rt_block
    rt_event.o(i.rt_evt_wait) refers to rt_task.o(.data) for os_tsk
    rt_list.o(i.rt_dec_dly) refers to rt_list.o(i.rt_put_prio) for rt_put_prio
    rt_list.o(i.rt_dec_dly) refers to rt_list.o(.bss) for .bss
    rt_list.o(i.rt_dec_dly) refers to rt_time.o(.data) for os_time
    rt_list.o(i.rt_get_same_rdy_prio) refers to rt_list.o(.bss) for .bss
    rt_list.o(i.rt_get_same_rdy_prio) refers to rt_task.o(.data) for os_tsk
    rt_list.o(i.rt_psq_enq) refers to rtx_conf_cm.o(i.os_error) for os_error
    rt_list.o(i.rt_psq_enq) refers to rtx_conf_cm.o(.bss) for os_fifo
    rt_list.o(i.rt_put_dly) refers to rt_list.o(.bss) for .bss
    rt_list.o(i.rt_put_rdy_first) refers to rt_list.o(.bss) for .bss
    rt_list.o(i.rt_resort_prio) refers to rt_list.o(i.rt_rmv_list) for rt_rmv_list
    rt_list.o(i.rt_resort_prio) refers to rt_list.o(i.rt_put_prio) for rt_put_prio
    rt_list.o(i.rt_resort_prio) refers to rt_list.o(.bss) for .bss
    rt_list.o(i.rt_rmv_list) refers to rt_list.o(.bss) for .bss
    rt_mailbox.o(i.isr_mbx_receive) refers to rt_list.o(i.rt_psq_enq) for rt_psq_enq
    rt_mailbox.o(i.isr_mbx_receive) refers to rt_system.o(i.rt_psh_req) for rt_psh_req
    rt_mailbox.o(i.isr_mbx_send) refers to rt_list.o(i.rt_psq_enq) for rt_psq_enq
    rt_mailbox.o(i.isr_mbx_send) refers to rt_system.o(i.rt_psh_req) for rt_psh_req
    rt_mailbox.o(i.rt_mbx_psh) refers to rt_membox.o(i.rt_alloc_box) for rt_alloc_box
    rt_mailbox.o(i.rt_mbx_psh) refers to rt_list.o(i.rt_get_first) for rt_get_first
    rt_mailbox.o(i.rt_mbx_psh) refers to hal_cm.o(i.rt_ret_val) for rt_ret_val
    rt_mailbox.o(i.rt_mbx_psh) refers to rt_list.o(i.rt_rmv_dly) for rt_rmv_dly
    rt_mailbox.o(i.rt_mbx_psh) refers to rt_list.o(i.rt_put_prio) for rt_put_prio
    rt_mailbox.o(i.rt_mbx_psh) refers to hal_cm.o(i.rt_ret_val2) for rt_ret_val2
    rt_mailbox.o(i.rt_mbx_psh) refers to rtx_conf_cm.o(i.os_error) for os_error
    rt_mailbox.o(i.rt_mbx_psh) refers to rt_list.o(.bss) for os_rdy
    rt_mailbox.o(i.rt_mbx_send) refers to rt_list.o(i.rt_put_prio) for rt_put_prio
    rt_mailbox.o(i.rt_mbx_send) refers to rt_list.o(i.rt_get_first) for rt_get_first
    rt_mailbox.o(i.rt_mbx_send) refers to hal_cm.o(i.rt_ret_val2) for rt_ret_val2
    rt_mailbox.o(i.rt_mbx_send) refers to rt_list.o(i.rt_rmv_dly) for rt_rmv_dly
    rt_mailbox.o(i.rt_mbx_send) refers to rt_task.o(i.rt_dispatch) for rt_dispatch
    rt_mailbox.o(i.rt_mbx_send) refers to rt_task.o(i.rt_block) for rt_block
    rt_mailbox.o(i.rt_mbx_send) refers to rt_task.o(.data) for os_tsk
    rt_mailbox.o(i.rt_mbx_wait) refers to rt_list.o(i.rt_get_first) for rt_get_first
    rt_mailbox.o(i.rt_mbx_wait) refers to hal_cm.o(i.rt_ret_val) for rt_ret_val
    rt_mailbox.o(i.rt_mbx_wait) refers to rt_list.o(i.rt_rmv_dly) for rt_rmv_dly
    rt_mailbox.o(i.rt_mbx_wait) refers to rt_task.o(i.rt_dispatch) for rt_dispatch
    rt_mailbox.o(i.rt_mbx_wait) refers to rt_list.o(i.rt_put_prio) for rt_put_prio
    rt_mailbox.o(i.rt_mbx_wait) refers to rt_task.o(i.rt_block) for rt_block
    rt_mailbox.o(i.rt_mbx_wait) refers to rt_task.o(.data) for os_tsk
    rt_semaphore.o(i.isr_sem_send) refers to rt_list.o(i.rt_psq_enq) for rt_psq_enq
    rt_semaphore.o(i.isr_sem_send) refers to rt_system.o(i.rt_psh_req) for rt_psh_req
    rt_semaphore.o(i.rt_sem_delete) refers to rt_list.o(i.rt_get_first) for rt_get_first
    rt_semaphore.o(i.rt_sem_delete) refers to hal_cm.o(i.rt_ret_val) for rt_ret_val
    rt_semaphore.o(i.rt_sem_delete) refers to rt_list.o(i.rt_rmv_dly) for rt_rmv_dly
    rt_semaphore.o(i.rt_sem_delete) refers to rt_list.o(i.rt_put_prio) for rt_put_prio
    rt_semaphore.o(i.rt_sem_delete) refers to rt_task.o(i.rt_dispatch) for rt_dispatch
    rt_semaphore.o(i.rt_sem_delete) refers to rt_list.o(.bss) for os_rdy
    rt_semaphore.o(i.rt_sem_delete) refers to rt_task.o(.data) for os_tsk
    rt_semaphore.o(i.rt_sem_psh) refers to rt_list.o(i.rt_get_first) for rt_get_first
    rt_semaphore.o(i.rt_sem_psh) refers to rt_list.o(i.rt_rmv_dly) for rt_rmv_dly
    rt_semaphore.o(i.rt_sem_psh) refers to hal_cm.o(i.rt_ret_val) for rt_ret_val
    rt_semaphore.o(i.rt_sem_psh) refers to rt_list.o(i.rt_put_prio) for rt_put_prio
    rt_semaphore.o(i.rt_sem_psh) refers to rt_list.o(.bss) for os_rdy
    rt_semaphore.o(i.rt_sem_send) refers to rt_list.o(i.rt_get_first) for rt_get_first
    rt_semaphore.o(i.rt_sem_send) refers to hal_cm.o(i.rt_ret_val) for rt_ret_val
    rt_semaphore.o(i.rt_sem_send) refers to rt_list.o(i.rt_rmv_dly) for rt_rmv_dly
    rt_semaphore.o(i.rt_sem_send) refers to rt_task.o(i.rt_dispatch) for rt_dispatch
    rt_semaphore.o(i.rt_sem_wait) refers to rt_list.o(i.rt_put_prio) for rt_put_prio
    rt_semaphore.o(i.rt_sem_wait) refers to rt_task.o(i.rt_block) for rt_block
    rt_semaphore.o(i.rt_sem_wait) refers to rt_task.o(.data) for os_tsk
    rt_mutex.o(i.rt_mut_delete) refers to rt_list.o(i.rt_resort_prio) for rt_resort_prio
    rt_mutex.o(i.rt_mut_delete) refers to rt_list.o(i.rt_get_first) for rt_get_first
    rt_mutex.o(i.rt_mut_delete) refers to hal_cm.o(i.rt_ret_val) for rt_ret_val
    rt_mutex.o(i.rt_mut_delete) refers to rt_list.o(i.rt_rmv_dly) for rt_rmv_dly
    rt_mutex.o(i.rt_mut_delete) refers to rt_list.o(i.rt_put_prio) for rt_put_prio
    rt_mutex.o(i.rt_mut_delete) refers to rt_task.o(i.rt_dispatch) for rt_dispatch
    rt_mutex.o(i.rt_mut_delete) refers to rt_task.o(.data) for os_tsk
    rt_mutex.o(i.rt_mut_delete) refers to rt_list.o(.bss) for os_rdy
    rt_mutex.o(i.rt_mut_release) refers to rt_list.o(i.rt_get_first) for rt_get_first
    rt_mutex.o(i.rt_mut_release) refers to hal_cm.o(i.rt_ret_val) for rt_ret_val
    rt_mutex.o(i.rt_mut_release) refers to rt_list.o(i.rt_rmv_dly) for rt_rmv_dly
    rt_mutex.o(i.rt_mut_release) refers to rt_list.o(i.rt_put_prio) for rt_put_prio
    rt_mutex.o(i.rt_mut_release) refers to rt_task.o(i.rt_dispatch) for rt_dispatch
    rt_mutex.o(i.rt_mut_release) refers to rt_task.o(.data) for os_tsk
    rt_mutex.o(i.rt_mut_release) refers to rt_list.o(.bss) for os_rdy
    rt_mutex.o(i.rt_mut_wait) refers to rt_list.o(i.rt_resort_prio) for rt_resort_prio
    rt_mutex.o(i.rt_mut_wait) refers to rt_list.o(i.rt_put_prio) for rt_put_prio
    rt_mutex.o(i.rt_mut_wait) refers to rt_task.o(i.rt_block) for rt_block
    rt_mutex.o(i.rt_mut_wait) refers to rt_task.o(.data) for os_tsk
    rt_membox.o(i._calloc_box) refers to hal_cm3.o(.emb_text) for _alloc_box
    hal_cm.o(i.dbg_init) refers to hal_cm.o(.data) for .data
    hal_cm.o(i.rt_init_stack) refers to rtx_conf_cm.o(.constdata) for os_stackinfo
    rt_robin.o(i.rt_chk_robin) refers to rt_list.o(i.rt_get_first) for rt_get_first
    rt_robin.o(i.rt_chk_robin) refers to rt_list.o(i.rt_put_prio) for rt_put_prio
    rt_robin.o(i.rt_chk_robin) refers to rt_robin.o(.data) for .data
    rt_robin.o(i.rt_chk_robin) refers to rt_list.o(.bss) for os_rdy
    rt_robin.o(i.rt_chk_robin) refers to rt_time.o(.data) for os_time
    rt_robin.o(i.rt_init_robin) refers to rt_robin.o(.data) for .data
    rt_robin.o(i.rt_init_robin) refers to rtx_conf_cm.o(.constdata) for os_rrobin
    hal_cm3.o(.emb_text) refers to rtx_conf_cm.o(.constdata) for os_flags
    hal_cm3.o(.emb_text) refers to rt_membox.o(i.rt_alloc_box) for rt_alloc_box
    hal_cm3.o(.emb_text) refers to rt_membox.o(i.rt_free_box) for rt_free_box
    hal_cm3.o(.emb_text) refers to rt_system.o(i.rt_stk_check) for rt_stk_check
    hal_cm3.o(.emb_text) refers to rt_task.o(.data) for os_tsk
    hal_cm3.o(.emb_text) refers to svc_table.o(SVC_TABLE) for SVC_Count
    hal_cm3.o(.emb_text) refers to rt_system.o(i.rt_pop_req) for rt_pop_req
    hal_cm3.o(.emb_text) refers to rt_system.o(i.rt_systick) for rt_systick
    hal_cm3.o(.emb_text) refers to rt_system.o(i.os_tick_irqack) for os_tick_irqack
    entry.o(.ARM.Collect$$$$00000000) refers (Special) to entry10a.o(.ARM.Collect$$$$0000000F) for __rt_final_cpp
    entry.o(.ARM.Collect$$$$00000000) refers (Special) to entry11a.o(.ARM.Collect$$$$00000011) for __rt_final_exit
    entry.o(.ARM.Collect$$$$00000000) refers (Special) to entry12b.o(.ARM.Collect$$$$0000000E) for __rt_lib_shutdown_fini
    entry.o(.ARM.Collect$$$$00000000) refers (Special) to entry7b.o(.ARM.Collect$$$$00000008) for _main_clock
    entry.o(.ARM.Collect$$$$00000000) refers (Special) to entry8b.o(.ARM.Collect$$$$0000000A) for _main_cpp_init
    entry.o(.ARM.Collect$$$$00000000) refers (Special) to rtx_conf_cm.o(.ARM.Collect$$$$000000FF) for _main_init
    entry.o(.ARM.Collect$$$$00000000) refers (Special) to entry5.o(.ARM.Collect$$$$00000004) for _main_scatterload
    entry.o(.ARM.Collect$$$$00000000) refers (Special) to entry2.o(.ARM.Collect$$$$00000001) for _main_stk
    uldiv.o(.text) refers to llushr.o(.text) for __aeabi_llsr
    uldiv.o(.text) refers to llshl.o(.text) for __aeabi_llsl
    printfb.o(i.__0fprintf$bare) refers to printfb.o(i._printf_core) for _printf_core
    printfb.o(i.__0fprintf$bare) refers to main.o(i.fputc) for fputc
    printfb.o(i.__0printf$bare) refers to printfb.o(i._printf_core) for _printf_core
    printfb.o(i.__0printf$bare) refers to main.o(i.fputc) for fputc
    printfb.o(i.__0printf$bare) refers to stdout.o(.data) for __stdout
    printfb.o(i.__0snprintf$bare) refers to printfb.o(i._printf_core) for _printf_core
    printfb.o(i.__0snprintf$bare) refers to printfb.o(i._snputc) for _snputc
    printfb.o(i.__0sprintf$bare) refers to printfb.o(i._printf_core) for _printf_core
    printfb.o(i.__0sprintf$bare) refers to printfb.o(i._sputc) for _sputc
    printfb.o(i.__0vfprintf$bare) refers to printfb.o(i._printf_core) for _printf_core
    printfb.o(i.__0vfprintf$bare) refers to main.o(i.fputc) for fputc
    printfb.o(i.__0vprintf$bare) refers to printfb.o(i._printf_core) for _printf_core
    printfb.o(i.__0vprintf$bare) refers to main.o(i.fputc) for fputc
    printfb.o(i.__0vprintf$bare) refers to stdout.o(.data) for __stdout
    printfb.o(i.__0vsnprintf$bare) refers to printfb.o(i._printf_core) for _printf_core
    printfb.o(i.__0vsnprintf$bare) refers to printfb.o(i._snputc) for _snputc
    printfb.o(i.__0vsprintf$bare) refers to printfb.o(i._printf_core) for _printf_core
    printfb.o(i.__0vsprintf$bare) refers to printfb.o(i._sputc) for _sputc
    printf0.o(i.__0fprintf$0) refers to printf0.o(i._printf_core) for _printf_core
    printf0.o(i.__0fprintf$0) refers to main.o(i.fputc) for fputc
    printf0.o(i.__0printf$0) refers to printf0.o(i._printf_core) for _printf_core
    printf0.o(i.__0printf$0) refers to main.o(i.fputc) for fputc
    printf0.o(i.__0printf$0) refers to stdout.o(.data) for __stdout
    printf0.o(i.__0snprintf$0) refers to printf0.o(i._printf_core) for _printf_core
    printf0.o(i.__0snprintf$0) refers to printf0.o(i._snputc) for _snputc
    printf0.o(i.__0sprintf$0) refers to printf0.o(i._printf_core) for _printf_core
    printf0.o(i.__0sprintf$0) refers to printf0.o(i._sputc) for _sputc
    printf0.o(i.__0vfprintf$0) refers to printf0.o(i._printf_core) for _printf_core
    printf0.o(i.__0vfprintf$0) refers to main.o(i.fputc) for fputc
    printf0.o(i.__0vprintf$0) refers to printf0.o(i._printf_core) for _printf_core
    printf0.o(i.__0vprintf$0) refers to main.o(i.fputc) for fputc
    printf0.o(i.__0vprintf$0) refers to stdout.o(.data) for __stdout
    printf0.o(i.__0vsnprintf$0) refers to printf0.o(i._printf_core) for _printf_core
    printf0.o(i.__0vsnprintf$0) refers to printf0.o(i._snputc) for _snputc
    printf0.o(i.__0vsprintf$0) refers to printf0.o(i._printf_core) for _printf_core
    printf0.o(i.__0vsprintf$0) refers to printf0.o(i._sputc) for _sputc
    printf1.o(i.__0fprintf$1) refers to printf1.o(i._printf_core) for _printf_core
    printf1.o(i.__0fprintf$1) refers to main.o(i.fputc) for fputc
    printf1.o(i.__0printf$1) refers to printf1.o(i._printf_core) for _printf_core
    printf1.o(i.__0printf$1) refers to main.o(i.fputc) for fputc
    printf1.o(i.__0printf$1) refers to stdout.o(.data) for __stdout
    printf1.o(i.__0snprintf$1) refers to printf1.o(i._printf_core) for _printf_core
    printf1.o(i.__0snprintf$1) refers to printf1.o(i._snputc) for _snputc
    printf1.o(i.__0sprintf$1) refers to printf1.o(i._printf_core) for _printf_core
    printf1.o(i.__0sprintf$1) refers to printf1.o(i._sputc) for _sputc
    printf1.o(i.__0vfprintf$1) refers to printf1.o(i._printf_core) for _printf_core
    printf1.o(i.__0vfprintf$1) refers to main.o(i.fputc) for fputc
    printf1.o(i.__0vprintf$1) refers to printf1.o(i._printf_core) for _printf_core
    printf1.o(i.__0vprintf$1) refers to main.o(i.fputc) for fputc
    printf1.o(i.__0vprintf$1) refers to stdout.o(.data) for __stdout
    printf1.o(i.__0vsnprintf$1) refers to printf1.o(i._printf_core) for _printf_core
    printf1.o(i.__0vsnprintf$1) refers to printf1.o(i._snputc) for _snputc
    printf1.o(i.__0vsprintf$1) refers to printf1.o(i._printf_core) for _printf_core
    printf1.o(i.__0vsprintf$1) refers to printf1.o(i._sputc) for _sputc
    printf1.o(i._printf_core) refers to uidiv.o(.text) for __aeabi_uidivmod
    printf2.o(i.__0fprintf$2) refers to printf2.o(i._printf_core) for _printf_core
    printf2.o(i.__0fprintf$2) refers to main.o(i.fputc) for fputc
    printf2.o(i.__0printf$2) refers to printf2.o(i._printf_core) for _printf_core
    printf2.o(i.__0printf$2) refers to main.o(i.fputc) for fputc
    printf2.o(i.__0printf$2) refers to stdout.o(.data) for __stdout
    printf2.o(i.__0snprintf$2) refers to printf2.o(i._printf_core) for _printf_core
    printf2.o(i.__0snprintf$2) refers to printf2.o(i._snputc) for _snputc
    printf2.o(i.__0sprintf$2) refers to printf2.o(i._printf_core) for _printf_core
    printf2.o(i.__0sprintf$2) refers to printf2.o(i._sputc) for _sputc
    printf2.o(i.__0vfprintf$2) refers to printf2.o(i._printf_core) for _printf_core
    printf2.o(i.__0vfprintf$2) refers to main.o(i.fputc) for fputc
    printf2.o(i.__0vprintf$2) refers to printf2.o(i._printf_core) for _printf_core
    printf2.o(i.__0vprintf$2) refers to main.o(i.fputc) for fputc
    printf2.o(i.__0vprintf$2) refers to stdout.o(.data) for __stdout
    printf2.o(i.__0vsnprintf$2) refers to printf2.o(i._printf_core) for _printf_core
    printf2.o(i.__0vsnprintf$2) refers to printf2.o(i._snputc) for _snputc
    printf2.o(i.__0vsprintf$2) refers to printf2.o(i._printf_core) for _printf_core
    printf2.o(i.__0vsprintf$2) refers to printf2.o(i._sputc) for _sputc
    printf3.o(i.__0fprintf$3) refers to printf3.o(i._printf_core) for _printf_core
    printf3.o(i.__0fprintf$3) refers to main.o(i.fputc) for fputc
    printf3.o(i.__0printf$3) refers to printf3.o(i._printf_core) for _printf_core
    printf3.o(i.__0printf$3) refers to main.o(i.fputc) for fputc
    printf3.o(i.__0printf$3) refers to stdout.o(.data) for __stdout
    printf3.o(i.__0snprintf$3) refers to printf3.o(i._printf_core) for _printf_core
    printf3.o(i.__0snprintf$3) refers to printf3.o(i._snputc) for _snputc
    printf3.o(i.__0sprintf$3) refers to printf3.o(i._printf_core) for _printf_core
    printf3.o(i.__0sprintf$3) refers to printf3.o(i._sputc) for _sputc
    printf3.o(i.__0vfprintf$3) refers to printf3.o(i._printf_core) for _printf_core
    printf3.o(i.__0vfprintf$3) refers to main.o(i.fputc) for fputc
    printf3.o(i.__0vprintf$3) refers to printf3.o(i._printf_core) for _printf_core
    printf3.o(i.__0vprintf$3) refers to main.o(i.fputc) for fputc
    printf3.o(i.__0vprintf$3) refers to stdout.o(.data) for __stdout
    printf3.o(i.__0vsnprintf$3) refers to printf3.o(i._printf_core) for _printf_core
    printf3.o(i.__0vsnprintf$3) refers to printf3.o(i._snputc) for _snputc
    printf3.o(i.__0vsprintf$3) refers to printf3.o(i._printf_core) for _printf_core
    printf3.o(i.__0vsprintf$3) refers to printf3.o(i._sputc) for _sputc
    printf3.o(i._printf_core) refers to uidiv.o(.text) for __aeabi_uidivmod
    printf4.o(i.__0fprintf$4) refers to printf4.o(i._printf_core) for _printf_core
    printf4.o(i.__0fprintf$4) refers to main.o(i.fputc) for fputc
    printf4.o(i.__0printf$4) refers to printf4.o(i._printf_core) for _printf_core
    printf4.o(i.__0printf$4) refers to main.o(i.fputc) for fputc
    printf4.o(i.__0printf$4) refers to stdout.o(.data) for __stdout
    printf4.o(i.__0snprintf$4) refers to printf4.o(i._printf_core) for _printf_core
    printf4.o(i.__0snprintf$4) refers to printf4.o(i._snputc) for _snputc
    printf4.o(i.__0sprintf$4) refers to printf4.o(i._printf_core) for _printf_core
    printf4.o(i.__0sprintf$4) refers to printf4.o(i._sputc) for _sputc
    printf4.o(i.__0vfprintf$4) refers to printf4.o(i._printf_core) for _printf_core
    printf4.o(i.__0vfprintf$4) refers to main.o(i.fputc) for fputc
    printf4.o(i.__0vprintf$4) refers to printf4.o(i._printf_core) for _printf_core
    printf4.o(i.__0vprintf$4) refers to main.o(i.fputc) for fputc
    printf4.o(i.__0vprintf$4) refers to stdout.o(.data) for __stdout
    printf4.o(i.__0vsnprintf$4) refers to printf4.o(i._printf_core) for _printf_core
    printf4.o(i.__0vsnprintf$4) refers to printf4.o(i._snputc) for _snputc
    printf4.o(i.__0vsprintf$4) refers to printf4.o(i._printf_core) for _printf_core
    printf4.o(i.__0vsprintf$4) refers to printf4.o(i._sputc) for _sputc
    printf4.o(i._printf_core) refers to uldiv.o(.text) for __aeabi_uldivmod
    printf5.o(i.__0fprintf$5) refers to printf5.o(i._printf_core) for _printf_core
    printf5.o(i.__0fprintf$5) refers to main.o(i.fputc) for fputc
    printf5.o(i.__0printf$5) refers to printf5.o(i._printf_core) for _printf_core
    printf5.o(i.__0printf$5) refers to main.o(i.fputc) for fputc
    printf5.o(i.__0printf$5) refers to stdout.o(.data) for __stdout
    printf5.o(i.__0snprintf$5) refers to printf5.o(i._printf_core) for _printf_core
    printf5.o(i.__0snprintf$5) refers to printf5.o(i._snputc) for _snputc
    printf5.o(i.__0sprintf$5) refers to printf5.o(i._printf_core) for _printf_core
    printf5.o(i.__0sprintf$5) refers to printf5.o(i._sputc) for _sputc
    printf5.o(i.__0vfprintf$5) refers to printf5.o(i._printf_core) for _printf_core
    printf5.o(i.__0vfprintf$5) refers to main.o(i.fputc) for fputc
    printf5.o(i.__0vprintf$5) refers to printf5.o(i._printf_core) for _printf_core
    printf5.o(i.__0vprintf$5) refers to main.o(i.fputc) for fputc
    printf5.o(i.__0vprintf$5) refers to stdout.o(.data) for __stdout
    printf5.o(i.__0vsnprintf$5) refers to printf5.o(i._printf_core) for _printf_core
    printf5.o(i.__0vsnprintf$5) refers to printf5.o(i._snputc) for _snputc
    printf5.o(i.__0vsprintf$5) refers to printf5.o(i._printf_core) for _printf_core
    printf5.o(i.__0vsprintf$5) refers to printf5.o(i._sputc) for _sputc
    printf5.o(i._printf_core) refers to uldiv.o(.text) for __aeabi_uldivmod
    printf6.o(i.__0fprintf$6) refers to printf6.o(i._printf_core) for _printf_core
    printf6.o(i.__0fprintf$6) refers to main.o(i.fputc) for fputc
    printf6.o(i.__0printf$6) refers to printf6.o(i._printf_core) for _printf_core
    printf6.o(i.__0printf$6) refers to main.o(i.fputc) for fputc
    printf6.o(i.__0printf$6) refers to stdout.o(.data) for __stdout
    printf6.o(i.__0snprintf$6) refers to printf6.o(i._printf_core) for _printf_core
    printf6.o(i.__0snprintf$6) refers to printf6.o(i._snputc) for _snputc
    printf6.o(i.__0sprintf$6) refers to printf6.o(i._printf_core) for _printf_core
    printf6.o(i.__0sprintf$6) refers to printf6.o(i._sputc) for _sputc
    printf6.o(i.__0vfprintf$6) refers to printf6.o(i._printf_core) for _printf_core
    printf6.o(i.__0vfprintf$6) refers to main.o(i.fputc) for fputc
    printf6.o(i.__0vprintf$6) refers to printf6.o(i._printf_core) for _printf_core
    printf6.o(i.__0vprintf$6) refers to main.o(i.fputc) for fputc
    printf6.o(i.__0vprintf$6) refers to stdout.o(.data) for __stdout
    printf6.o(i.__0vsnprintf$6) refers to printf6.o(i._printf_core) for _printf_core
    printf6.o(i.__0vsnprintf$6) refers to printf6.o(i._snputc) for _snputc
    printf6.o(i.__0vsprintf$6) refers to printf6.o(i._printf_core) for _printf_core
    printf6.o(i.__0vsprintf$6) refers to printf6.o(i._sputc) for _sputc
    printf6.o(i._printf_core) refers to printf6.o(i._printf_pre_padding) for _printf_pre_padding
    printf6.o(i._printf_core) refers to uidiv.o(.text) for __aeabi_uidivmod
    printf6.o(i._printf_core) refers to printf6.o(i._printf_post_padding) for _printf_post_padding
    printf7.o(i.__0fprintf$7) refers to printf7.o(i._printf_core) for _printf_core
    printf7.o(i.__0fprintf$7) refers to main.o(i.fputc) for fputc
    printf7.o(i.__0printf$7) refers to printf7.o(i._printf_core) for _printf_core
    printf7.o(i.__0printf$7) refers to main.o(i.fputc) for fputc
    printf7.o(i.__0printf$7) refers to stdout.o(.data) for __stdout
    printf7.o(i.__0snprintf$7) refers to printf7.o(i._printf_core) for _printf_core
    printf7.o(i.__0snprintf$7) refers to printf7.o(i._snputc) for _snputc
    printf7.o(i.__0sprintf$7) refers to printf7.o(i._printf_core) for _printf_core
    printf7.o(i.__0sprintf$7) refers to printf7.o(i._sputc) for _sputc
    printf7.o(i.__0vfprintf$7) refers to printf7.o(i._printf_core) for _printf_core
    printf7.o(i.__0vfprintf$7) refers to main.o(i.fputc) for fputc
    printf7.o(i.__0vprintf$7) refers to printf7.o(i._printf_core) for _printf_core
    printf7.o(i.__0vprintf$7) refers to main.o(i.fputc) for fputc
    printf7.o(i.__0vprintf$7) refers to stdout.o(.data) for __stdout
    printf7.o(i.__0vsnprintf$7) refers to printf7.o(i._printf_core) for _printf_core
    printf7.o(i.__0vsnprintf$7) refers to printf7.o(i._snputc) for _snputc
    printf7.o(i.__0vsprintf$7) refers to printf7.o(i._printf_core) for _printf_core
    printf7.o(i.__0vsprintf$7) refers to printf7.o(i._sputc) for _sputc
    printf7.o(i._printf_core) refers to printf7.o(i._printf_pre_padding) for _printf_pre_padding
    printf7.o(i._printf_core) refers to uldiv.o(.text) for __aeabi_uldivmod
    printf7.o(i._printf_core) refers to printf7.o(i._printf_post_padding) for _printf_post_padding
    printf8.o(i.__0fprintf$8) refers to printf8.o(i._printf_core) for _printf_core
    printf8.o(i.__0fprintf$8) refers to main.o(i.fputc) for fputc
    printf8.o(i.__0printf$8) refers to printf8.o(i._printf_core) for _printf_core
    printf8.o(i.__0printf$8) refers to main.o(i.fputc) for fputc
    printf8.o(i.__0printf$8) refers to stdout.o(.data) for __stdout
    printf8.o(i.__0snprintf$8) refers to printf8.o(i._printf_core) for _printf_core
    printf8.o(i.__0snprintf$8) refers to printf8.o(i._snputc) for _snputc
    printf8.o(i.__0sprintf$8) refers to printf8.o(i._printf_core) for _printf_core
    printf8.o(i.__0sprintf$8) refers to printf8.o(i._sputc) for _sputc
    printf8.o(i.__0vfprintf$8) refers to printf8.o(i._printf_core) for _printf_core
    printf8.o(i.__0vfprintf$8) refers to main.o(i.fputc) for fputc
    printf8.o(i.__0vprintf$8) refers to printf8.o(i._printf_core) for _printf_core
    printf8.o(i.__0vprintf$8) refers to main.o(i.fputc) for fputc
    printf8.o(i.__0vprintf$8) refers to stdout.o(.data) for __stdout
    printf8.o(i.__0vsnprintf$8) refers to printf8.o(i._printf_core) for _printf_core
    printf8.o(i.__0vsnprintf$8) refers to printf8.o(i._snputc) for _snputc
    printf8.o(i.__0vsprintf$8) refers to printf8.o(i._printf_core) for _printf_core
    printf8.o(i.__0vsprintf$8) refers to printf8.o(i._sputc) for _sputc
    printf8.o(i._printf_core) refers to printf8.o(i._printf_pre_padding) for _printf_pre_padding
    printf8.o(i._printf_core) refers to uldiv.o(.text) for __aeabi_uldivmod
    printf8.o(i._printf_core) refers to printf8.o(i._printf_post_padding) for _printf_post_padding
    printfa.o(i.__0fprintf) refers (Special) to iusefp.o(.text) for __I$use$fp
    printfa.o(i.__0fprintf) refers to printfa.o(i._printf_core) for _printf_core
    printfa.o(i.__0fprintf) refers to main.o(i.fputc) for fputc
    printfa.o(i.__0printf) refers (Special) to iusefp.o(.text) for __I$use$fp
    printfa.o(i.__0printf) refers to printfa.o(i._printf_core) for _printf_core
    printfa.o(i.__0printf) refers to main.o(i.fputc) for fputc
    printfa.o(i.__0printf) refers to stdout.o(.data) for __stdout
    printfa.o(i.__0snprintf) refers (Special) to iusefp.o(.text) for __I$use$fp
    printfa.o(i.__0snprintf) refers to printfa.o(i._printf_core) for _printf_core
    printfa.o(i.__0snprintf) refers to printfa.o(i._snputc) for _snputc
    printfa.o(i.__0sprintf) refers (Special) to iusefp.o(.text) for __I$use$fp
    printfa.o(i.__0sprintf) refers to printfa.o(i._printf_core) for _printf_core
    printfa.o(i.__0sprintf) refers to printfa.o(i._sputc) for _sputc
    printfa.o(i.__0vfprintf) refers (Special) to iusefp.o(.text) for __I$use$fp
    printfa.o(i.__0vfprintf) refers to printfa.o(i._printf_core) for _printf_core
    printfa.o(i.__0vfprintf) refers to main.o(i.fputc) for fputc
    printfa.o(i.__0vprintf) refers (Special) to iusefp.o(.text) for __I$use$fp
    printfa.o(i.__0vprintf) refers to printfa.o(i._printf_core) for _printf_core
    printfa.o(i.__0vprintf) refers to main.o(i.fputc) for fputc
    printfa.o(i.__0vprintf) refers to stdout.o(.data) for __stdout
    printfa.o(i.__0vsnprintf) refers (Special) to iusefp.o(.text) for __I$use$fp
    printfa.o(i.__0vsnprintf) refers to printfa.o(i._printf_core) for _printf_core
    printfa.o(i.__0vsnprintf) refers to printfa.o(i._snputc) for _snputc
    printfa.o(i.__0vsprintf) refers (Special) to iusefp.o(.text) for __I$use$fp
    printfa.o(i.__0vsprintf) refers to printfa.o(i._printf_core) for _printf_core
    printfa.o(i.__0vsprintf) refers to printfa.o(i._sputc) for _sputc
    printfa.o(i._fp_digits) refers (Special) to iusefp.o(.text) for __I$use$fp
    printfa.o(i._fp_digits) refers to dmul.o(.text) for __aeabi_dmul
    printfa.o(i._fp_digits) refers to ddiv.o(.text) for __aeabi_ddiv
    printfa.o(i._fp_digits) refers to cdrcmple.o(.text) for __aeabi_cdrcmple
    printfa.o(i._fp_digits) refers to dadd.o(.text) for __aeabi_dadd
    printfa.o(i._fp_digits) refers to dfixul.o(.text) for __aeabi_d2ulz
    printfa.o(i._fp_digits) refers to uldiv.o(.text) for __aeabi_uldivmod
    printfa.o(i._printf_core) refers (Special) to iusefp.o(.text) for __I$use$fp
    printfa.o(i._printf_core) refers to printfa.o(i._printf_pre_padding) for _printf_pre_padding
    printfa.o(i._printf_core) refers to uldiv.o(.text) for __aeabi_uldivmod
    printfa.o(i._printf_core) refers to printfa.o(i._printf_post_padding) for _printf_post_padding
    printfa.o(i._printf_core) refers to printfa.o(i._fp_digits) for _fp_digits
    printfa.o(i._printf_core) refers to uidiv.o(.text) for __aeabi_uidivmod
    printfa.o(i._printf_post_padding) refers (Special) to iusefp.o(.text) for __I$use$fp
    printfa.o(i._printf_pre_padding) refers (Special) to iusefp.o(.text) for __I$use$fp
    printfa.o(i._snputc) refers (Special) to iusefp.o(.text) for __I$use$fp
    printfa.o(i._sputc) refers (Special) to iusefp.o(.text) for __I$use$fp
    entry2.o(.ARM.Collect$$$$00000001) refers to entry2.o(.ARM.Collect$$$$00002712) for __lit__00000000
    entry2.o(.ARM.Collect$$$$00002712) refers to startup_stm32f103xe.o(STACK) for __initial_sp
    entry2.o(__vectab_stack_and_reset_area) refers to startup_stm32f103xe.o(STACK) for __initial_sp
    entry2.o(__vectab_stack_and_reset_area) refers to entry.o(.ARM.Collect$$$$00000000) for __main
    entry5.o(.ARM.Collect$$$$00000004) refers to init.o(.text) for __scatterload
    dadd.o(.text) refers to llshl.o(.text) for __aeabi_llsl
    dadd.o(.text) refers to llsshr.o(.text) for __aeabi_lasr
    dadd.o(.text) refers to depilogue.o(.text) for _double_epilogue
    dmul.o(.text) refers to depilogue.o(.text) for _double_epilogue
    ddiv.o(.text) refers to depilogue.o(.text) for _double_round
    dfixul.o(.text) refers to llushr.o(.text) for __aeabi_llsr
    dfixul.o(.text) refers to llshl.o(.text) for __aeabi_llsl
    init.o(.text) refers to entry5.o(.ARM.Collect$$$$00000004) for __main_after_scatterload
    depilogue.o(.text) refers to llshl.o(.text) for __aeabi_llsl
    depilogue.o(.text) refers to llushr.o(.text) for __aeabi_llsr


==============================================================================

Removing Unused input sections from the image.

    Removing startup_stm32f103xe.o(HEAP), (512 bytes).
    Removing main.o(.rev16_text), (4 bytes).
    Removing main.o(.revsh_text), (4 bytes).
    Removing main.o(.rrx_text), (6 bytes).
    Removing main.o(i.Error_Handler), (4 bytes).
    Removing stm32f1xx_it.o(.rev16_text), (4 bytes).
    Removing stm32f1xx_it.o(.revsh_text), (4 bytes).
    Removing stm32f1xx_it.o(.rrx_text), (6 bytes).
    Removing stm32f1xx_hal_msp.o(.rev16_text), (4 bytes).
    Removing stm32f1xx_hal_msp.o(.revsh_text), (4 bytes).
    Removing stm32f1xx_hal_msp.o(.rrx_text), (6 bytes).
    Removing stm32f1xx_hal_msp.o(i.HAL_TIM_Base_MspDeInit), (28 bytes).
    Removing stm32f1xx_hal_msp.o(i.HAL_UART_MspDeInit), (92 bytes).
    Removing stm32f1xx_hal_gpio_ex.o(.rev16_text), (4 bytes).
    Removing stm32f1xx_hal_gpio_ex.o(.revsh_text), (4 bytes).
    Removing stm32f1xx_hal_gpio_ex.o(.rrx_text), (6 bytes).
    Removing stm32f1xx_hal_gpio_ex.o(i.HAL_GPIOEx_ConfigEventout), (20 bytes).
    Removing stm32f1xx_hal_gpio_ex.o(i.HAL_GPIOEx_DisableEventout), (16 bytes).
    Removing stm32f1xx_hal_gpio_ex.o(i.HAL_GPIOEx_EnableEventout), (16 bytes).
    Removing stm32f1xx_hal_tim.o(.rev16_text), (4 bytes).
    Removing stm32f1xx_hal_tim.o(.revsh_text), (4 bytes).
    Removing stm32f1xx_hal_tim.o(.rrx_text), (6 bytes).
    Removing stm32f1xx_hal_tim.o(i.HAL_TIM_Base_DeInit), (92 bytes).
    Removing stm32f1xx_hal_tim.o(i.HAL_TIM_Base_GetState), (6 bytes).
    Removing stm32f1xx_hal_tim.o(i.HAL_TIM_Base_MspDeInit), (2 bytes).
    Removing stm32f1xx_hal_tim.o(i.HAL_TIM_Base_MspInit), (2 bytes).
    Removing stm32f1xx_hal_tim.o(i.HAL_TIM_Base_Start_DMA), (172 bytes).
    Removing stm32f1xx_hal_tim.o(i.HAL_TIM_Base_Start_IT), (108 bytes).
    Removing stm32f1xx_hal_tim.o(i.HAL_TIM_Base_Stop_DMA), (58 bytes).
    Removing stm32f1xx_hal_tim.o(i.HAL_TIM_Base_Stop_IT), (48 bytes).
    Removing stm32f1xx_hal_tim.o(i.HAL_TIM_ConfigOCrefClear), (216 bytes).
    Removing stm32f1xx_hal_tim.o(i.HAL_TIM_ConfigTI1Input), (16 bytes).
    Removing stm32f1xx_hal_tim.o(i.HAL_TIM_DMABurstState), (6 bytes).
    Removing stm32f1xx_hal_tim.o(i.HAL_TIM_DMABurst_MultiReadStart), (332 bytes).
    Removing stm32f1xx_hal_tim.o(i.HAL_TIM_DMABurst_MultiWriteStart), (332 bytes).
    Removing stm32f1xx_hal_tim.o(i.HAL_TIM_DMABurst_ReadStart), (18 bytes).
    Removing stm32f1xx_hal_tim.o(i.HAL_TIM_DMABurst_ReadStop), (106 bytes).
    Removing stm32f1xx_hal_tim.o(i.HAL_TIM_DMABurst_WriteStart), (18 bytes).
    Removing stm32f1xx_hal_tim.o(i.HAL_TIM_DMABurst_WriteStop), (106 bytes).
    Removing stm32f1xx_hal_tim.o(i.HAL_TIM_Encoder_DeInit), (76 bytes).
    Removing stm32f1xx_hal_tim.o(i.HAL_TIM_Encoder_GetState), (6 bytes).
    Removing stm32f1xx_hal_tim.o(i.HAL_TIM_Encoder_Init), (164 bytes).
    Removing stm32f1xx_hal_tim.o(i.HAL_TIM_Encoder_MspDeInit), (2 bytes).
    Removing stm32f1xx_hal_tim.o(i.HAL_TIM_Encoder_MspInit), (2 bytes).
    Removing stm32f1xx_hal_tim.o(i.HAL_TIM_Encoder_Start), (142 bytes).
    Removing stm32f1xx_hal_tim.o(i.HAL_TIM_Encoder_Start_DMA), (428 bytes).
    Removing stm32f1xx_hal_tim.o(i.HAL_TIM_Encoder_Start_IT), (182 bytes).
    Removing stm32f1xx_hal_tim.o(i.HAL_TIM_Encoder_Stop), (102 bytes).
    Removing stm32f1xx_hal_tim.o(i.HAL_TIM_Encoder_Stop_DMA), (172 bytes).
    Removing stm32f1xx_hal_tim.o(i.HAL_TIM_Encoder_Stop_IT), (144 bytes).
    Removing stm32f1xx_hal_tim.o(i.HAL_TIM_ErrorCallback), (2 bytes).
    Removing stm32f1xx_hal_tim.o(i.HAL_TIM_GenerateEvent), (38 bytes).
    Removing stm32f1xx_hal_tim.o(i.HAL_TIM_GetActiveChannel), (4 bytes).
    Removing stm32f1xx_hal_tim.o(i.HAL_TIM_GetChannelState), (34 bytes).
    Removing stm32f1xx_hal_tim.o(i.HAL_TIM_IC_CaptureCallback), (2 bytes).
    Removing stm32f1xx_hal_tim.o(i.HAL_TIM_IC_CaptureHalfCpltCallback), (2 bytes).
    Removing stm32f1xx_hal_tim.o(i.HAL_TIM_IC_ConfigChannel), (292 bytes).
    Removing stm32f1xx_hal_tim.o(i.HAL_TIM_IC_DeInit), (92 bytes).
    Removing stm32f1xx_hal_tim.o(i.HAL_TIM_IC_GetState), (6 bytes).
    Removing stm32f1xx_hal_tim.o(i.HAL_TIM_IC_Init), (90 bytes).
    Removing stm32f1xx_hal_tim.o(i.HAL_TIM_IC_MspDeInit), (2 bytes).
    Removing stm32f1xx_hal_tim.o(i.HAL_TIM_IC_MspInit), (2 bytes).
    Removing stm32f1xx_hal_tim.o(i.HAL_TIM_IC_Start), (204 bytes).
    Removing stm32f1xx_hal_tim.o(i.HAL_TIM_IC_Start_DMA), (436 bytes).
    Removing stm32f1xx_hal_tim.o(i.HAL_TIM_IC_Start_IT), (248 bytes).
    Removing stm32f1xx_hal_tim.o(i.HAL_TIM_IC_Stop), (82 bytes).
    Removing stm32f1xx_hal_tim.o(i.HAL_TIM_IC_Stop_DMA), (160 bytes).
    Removing stm32f1xx_hal_tim.o(i.HAL_TIM_IC_Stop_IT), (146 bytes).
    Removing stm32f1xx_hal_tim.o(i.HAL_TIM_IRQHandler), (358 bytes).
    Removing stm32f1xx_hal_tim.o(i.HAL_TIM_OC_ConfigChannel), (82 bytes).
    Removing stm32f1xx_hal_tim.o(i.HAL_TIM_OC_DeInit), (92 bytes).
    Removing stm32f1xx_hal_tim.o(i.HAL_TIM_OC_DelayElapsedCallback), (2 bytes).
    Removing stm32f1xx_hal_tim.o(i.HAL_TIM_OC_GetState), (6 bytes).
    Removing stm32f1xx_hal_tim.o(i.HAL_TIM_OC_Init), (90 bytes).
    Removing stm32f1xx_hal_tim.o(i.HAL_TIM_OC_MspDeInit), (2 bytes).
    Removing stm32f1xx_hal_tim.o(i.HAL_TIM_OC_MspInit), (2 bytes).
    Removing stm32f1xx_hal_tim.o(i.HAL_TIM_OC_Start), (180 bytes).
    Removing stm32f1xx_hal_tim.o(i.HAL_TIM_OC_Start_DMA), (428 bytes).
    Removing stm32f1xx_hal_tim.o(i.HAL_TIM_OC_Start_IT), (224 bytes).
    Removing stm32f1xx_hal_tim.o(i.HAL_TIM_OC_Stop), (124 bytes).
    Removing stm32f1xx_hal_tim.o(i.HAL_TIM_OC_Stop_DMA), (204 bytes).
    Removing stm32f1xx_hal_tim.o(i.HAL_TIM_OC_Stop_IT), (188 bytes).
    Removing stm32f1xx_hal_tim.o(i.HAL_TIM_OnePulse_ConfigChannel), (230 bytes).
    Removing stm32f1xx_hal_tim.o(i.HAL_TIM_OnePulse_DeInit), (76 bytes).
    Removing stm32f1xx_hal_tim.o(i.HAL_TIM_OnePulse_GetState), (6 bytes).
    Removing stm32f1xx_hal_tim.o(i.HAL_TIM_OnePulse_Init), (86 bytes).
    Removing stm32f1xx_hal_tim.o(i.HAL_TIM_OnePulse_MspDeInit), (2 bytes).
    Removing stm32f1xx_hal_tim.o(i.HAL_TIM_OnePulse_MspInit), (2 bytes).
    Removing stm32f1xx_hal_tim.o(i.HAL_TIM_OnePulse_Start), (112 bytes).
    Removing stm32f1xx_hal_tim.o(i.HAL_TIM_OnePulse_Start_IT), (132 bytes).
    Removing stm32f1xx_hal_tim.o(i.HAL_TIM_OnePulse_Stop), (112 bytes).
    Removing stm32f1xx_hal_tim.o(i.HAL_TIM_OnePulse_Stop_IT), (132 bytes).
    Removing stm32f1xx_hal_tim.o(i.HAL_TIM_PWM_ConfigChannel), (204 bytes).
    Removing stm32f1xx_hal_tim.o(i.HAL_TIM_PWM_DeInit), (92 bytes).
    Removing stm32f1xx_hal_tim.o(i.HAL_TIM_PWM_GetState), (6 bytes).
    Removing stm32f1xx_hal_tim.o(i.HAL_TIM_PWM_Init), (90 bytes).
    Removing stm32f1xx_hal_tim.o(i.HAL_TIM_PWM_MspDeInit), (2 bytes).
    Removing stm32f1xx_hal_tim.o(i.HAL_TIM_PWM_MspInit), (2 bytes).
    Removing stm32f1xx_hal_tim.o(i.HAL_TIM_PWM_PulseFinishedCallback), (2 bytes).
    Removing stm32f1xx_hal_tim.o(i.HAL_TIM_PWM_PulseFinishedHalfCpltCallback), (2 bytes).
    Removing stm32f1xx_hal_tim.o(i.HAL_TIM_PWM_Start), (180 bytes).
    Removing stm32f1xx_hal_tim.o(i.HAL_TIM_PWM_Start_DMA), (428 bytes).
    Removing stm32f1xx_hal_tim.o(i.HAL_TIM_PWM_Start_IT), (224 bytes).
    Removing stm32f1xx_hal_tim.o(i.HAL_TIM_PWM_Stop), (124 bytes).
    Removing stm32f1xx_hal_tim.o(i.HAL_TIM_PWM_Stop_DMA), (204 bytes).
    Removing stm32f1xx_hal_tim.o(i.HAL_TIM_PWM_Stop_IT), (188 bytes).
    Removing stm32f1xx_hal_tim.o(i.HAL_TIM_PeriodElapsedCallback), (2 bytes).
    Removing stm32f1xx_hal_tim.o(i.HAL_TIM_PeriodElapsedHalfCpltCallback), (2 bytes).
    Removing stm32f1xx_hal_tim.o(i.HAL_TIM_ReadCapturedValue), (42 bytes).
    Removing stm32f1xx_hal_tim.o(i.HAL_TIM_SlaveConfigSynchro), (86 bytes).
    Removing stm32f1xx_hal_tim.o(i.HAL_TIM_SlaveConfigSynchro_IT), (86 bytes).
    Removing stm32f1xx_hal_tim.o(i.HAL_TIM_TriggerCallback), (2 bytes).
    Removing stm32f1xx_hal_tim.o(i.HAL_TIM_TriggerHalfCpltCallback), (2 bytes).
    Removing stm32f1xx_hal_tim.o(i.TIM_CCxChannelCmd), (26 bytes).
    Removing stm32f1xx_hal_tim.o(i.TIM_DMACaptureCplt), (110 bytes).
    Removing stm32f1xx_hal_tim.o(i.TIM_DMACaptureHalfCplt), (56 bytes).
    Removing stm32f1xx_hal_tim.o(i.TIM_DMADelayPulseCplt), (94 bytes).
    Removing stm32f1xx_hal_tim.o(i.TIM_DMADelayPulseHalfCplt), (56 bytes).
    Removing stm32f1xx_hal_tim.o(i.TIM_DMAError), (84 bytes).
    Removing stm32f1xx_hal_tim.o(i.TIM_DMAPeriodElapsedCplt), (22 bytes).
    Removing stm32f1xx_hal_tim.o(i.TIM_DMAPeriodElapsedHalfCplt), (10 bytes).
    Removing stm32f1xx_hal_tim.o(i.TIM_DMATriggerCplt), (22 bytes).
    Removing stm32f1xx_hal_tim.o(i.TIM_DMATriggerHalfCplt), (10 bytes).
    Removing stm32f1xx_hal_tim.o(i.TIM_OC1_SetConfig), (96 bytes).
    Removing stm32f1xx_hal_tim.o(i.TIM_OC2_SetConfig), (108 bytes).
    Removing stm32f1xx_hal_tim.o(i.TIM_OC3_SetConfig), (104 bytes).
    Removing stm32f1xx_hal_tim.o(i.TIM_OC4_SetConfig), (80 bytes).
    Removing stm32f1xx_hal_tim.o(i.TIM_SlaveTimer_SetConfig), (140 bytes).
    Removing stm32f1xx_hal_tim.o(i.TIM_TI1_SetConfig), (108 bytes).
    Removing stm32f1xx_hal_tim.o(i.TIM_TI2_SetConfig), (54 bytes).
    Removing stm32f1xx_hal_tim_ex.o(.rev16_text), (4 bytes).
    Removing stm32f1xx_hal_tim_ex.o(.revsh_text), (4 bytes).
    Removing stm32f1xx_hal_tim_ex.o(.rrx_text), (6 bytes).
    Removing stm32f1xx_hal_tim_ex.o(i.HAL_TIMEx_BreakCallback), (2 bytes).
    Removing stm32f1xx_hal_tim_ex.o(i.HAL_TIMEx_CommutCallback), (2 bytes).
    Removing stm32f1xx_hal_tim_ex.o(i.HAL_TIMEx_CommutHalfCpltCallback), (2 bytes).
    Removing stm32f1xx_hal_tim_ex.o(i.HAL_TIMEx_ConfigBreakDeadTime), (84 bytes).
    Removing stm32f1xx_hal_tim_ex.o(i.HAL_TIMEx_ConfigCommutEvent), (112 bytes).
    Removing stm32f1xx_hal_tim_ex.o(i.HAL_TIMEx_ConfigCommutEvent_DMA), (144 bytes).
    Removing stm32f1xx_hal_tim_ex.o(i.HAL_TIMEx_ConfigCommutEvent_IT), (112 bytes).
    Removing stm32f1xx_hal_tim_ex.o(i.HAL_TIMEx_GetChannelNState), (34 bytes).
    Removing stm32f1xx_hal_tim_ex.o(i.HAL_TIMEx_HallSensor_DeInit), (76 bytes).
    Removing stm32f1xx_hal_tim_ex.o(i.HAL_TIMEx_HallSensor_GetState), (6 bytes).
    Removing stm32f1xx_hal_tim_ex.o(i.HAL_TIMEx_HallSensor_Init), (208 bytes).
    Removing stm32f1xx_hal_tim_ex.o(i.HAL_TIMEx_HallSensor_MspDeInit), (2 bytes).
    Removing stm32f1xx_hal_tim_ex.o(i.HAL_TIMEx_HallSensor_MspInit), (2 bytes).
    Removing stm32f1xx_hal_tim_ex.o(i.HAL_TIMEx_HallSensor_Start), (148 bytes).
    Removing stm32f1xx_hal_tim_ex.o(i.HAL_TIMEx_HallSensor_Start_DMA), (204 bytes).
    Removing stm32f1xx_hal_tim_ex.o(i.HAL_TIMEx_HallSensor_Start_IT), (160 bytes).
    Removing stm32f1xx_hal_tim_ex.o(i.HAL_TIMEx_HallSensor_Stop), (58 bytes).
    Removing stm32f1xx_hal_tim_ex.o(i.HAL_TIMEx_HallSensor_Stop_DMA), (70 bytes).
    Removing stm32f1xx_hal_tim_ex.o(i.HAL_TIMEx_HallSensor_Stop_IT), (68 bytes).
    Removing stm32f1xx_hal_tim_ex.o(i.HAL_TIMEx_OCN_Start), (172 bytes).
    Removing stm32f1xx_hal_tim_ex.o(i.HAL_TIMEx_OCN_Start_DMA), (372 bytes).
    Removing stm32f1xx_hal_tim_ex.o(i.HAL_TIMEx_OCN_Start_IT), (212 bytes).
    Removing stm32f1xx_hal_tim_ex.o(i.HAL_TIMEx_OCN_Stop), (104 bytes).
    Removing stm32f1xx_hal_tim_ex.o(i.HAL_TIMEx_OCN_Stop_DMA), (168 bytes).
    Removing stm32f1xx_hal_tim_ex.o(i.HAL_TIMEx_OCN_Stop_IT), (170 bytes).
    Removing stm32f1xx_hal_tim_ex.o(i.HAL_TIMEx_OnePulseN_Start), (100 bytes).
    Removing stm32f1xx_hal_tim_ex.o(i.HAL_TIMEx_OnePulseN_Start_IT), (120 bytes).
    Removing stm32f1xx_hal_tim_ex.o(i.HAL_TIMEx_OnePulseN_Stop), (98 bytes).
    Removing stm32f1xx_hal_tim_ex.o(i.HAL_TIMEx_OnePulseN_Stop_IT), (120 bytes).
    Removing stm32f1xx_hal_tim_ex.o(i.HAL_TIMEx_PWMN_Start), (172 bytes).
    Removing stm32f1xx_hal_tim_ex.o(i.HAL_TIMEx_PWMN_Start_DMA), (372 bytes).
    Removing stm32f1xx_hal_tim_ex.o(i.HAL_TIMEx_PWMN_Start_IT), (212 bytes).
    Removing stm32f1xx_hal_tim_ex.o(i.HAL_TIMEx_PWMN_Stop), (104 bytes).
    Removing stm32f1xx_hal_tim_ex.o(i.HAL_TIMEx_PWMN_Stop_DMA), (168 bytes).
    Removing stm32f1xx_hal_tim_ex.o(i.HAL_TIMEx_PWMN_Stop_IT), (170 bytes).
    Removing stm32f1xx_hal_tim_ex.o(i.HAL_TIMEx_RemapConfig), (4 bytes).
    Removing stm32f1xx_hal_tim_ex.o(i.TIMEx_DMACommutationCplt), (16 bytes).
    Removing stm32f1xx_hal_tim_ex.o(i.TIMEx_DMACommutationHalfCplt), (16 bytes).
    Removing stm32f1xx_hal_tim_ex.o(i.TIM_CCxNChannelCmd), (26 bytes).
    Removing stm32f1xx_hal_tim_ex.o(i.TIM_DMADelayPulseNCplt), (94 bytes).
    Removing stm32f1xx_hal_tim_ex.o(i.TIM_DMAErrorCCxN), (62 bytes).
    Removing stm32f1xx_hal.o(.rev16_text), (4 bytes).
    Removing stm32f1xx_hal.o(.revsh_text), (4 bytes).
    Removing stm32f1xx_hal.o(.rrx_text), (6 bytes).
    Removing stm32f1xx_hal.o(i.HAL_DBGMCU_DisableDBGSleepMode), (16 bytes).
    Removing stm32f1xx_hal.o(i.HAL_DBGMCU_DisableDBGStandbyMode), (16 bytes).
    Removing stm32f1xx_hal.o(i.HAL_DBGMCU_DisableDBGStopMode), (16 bytes).
    Removing stm32f1xx_hal.o(i.HAL_DBGMCU_EnableDBGSleepMode), (16 bytes).
    Removing stm32f1xx_hal.o(i.HAL_DBGMCU_EnableDBGStandbyMode), (16 bytes).
    Removing stm32f1xx_hal.o(i.HAL_DBGMCU_EnableDBGStopMode), (16 bytes).
    Removing stm32f1xx_hal.o(i.HAL_DeInit), (32 bytes).
    Removing stm32f1xx_hal.o(i.HAL_GetDEVID), (16 bytes).
    Removing stm32f1xx_hal.o(i.HAL_GetHalVersion), (8 bytes).
    Removing stm32f1xx_hal.o(i.HAL_GetREVID), (12 bytes).
    Removing stm32f1xx_hal.o(i.HAL_GetTick), (12 bytes).
    Removing stm32f1xx_hal.o(i.HAL_GetTickFreq), (12 bytes).
    Removing stm32f1xx_hal.o(i.HAL_GetTickPrio), (12 bytes).
    Removing stm32f1xx_hal.o(i.HAL_GetUIDw0), (12 bytes).
    Removing stm32f1xx_hal.o(i.HAL_GetUIDw1), (12 bytes).
    Removing stm32f1xx_hal.o(i.HAL_GetUIDw2), (12 bytes).
    Removing stm32f1xx_hal.o(i.HAL_IncTick), (16 bytes).
    Removing stm32f1xx_hal.o(i.HAL_MspDeInit), (2 bytes).
    Removing stm32f1xx_hal.o(i.HAL_MspInit), (2 bytes).
    Removing stm32f1xx_hal.o(i.HAL_ResumeTick), (14 bytes).
    Removing stm32f1xx_hal.o(i.HAL_SetTickFreq), (36 bytes).
    Removing stm32f1xx_hal.o(i.HAL_SuspendTick), (14 bytes).
    Removing stm32f1xx_hal_rcc.o(.rev16_text), (4 bytes).
    Removing stm32f1xx_hal_rcc.o(.revsh_text), (4 bytes).
    Removing stm32f1xx_hal_rcc.o(.rrx_text), (6 bytes).
    Removing stm32f1xx_hal_rcc.o(i.HAL_RCC_CSSCallback), (2 bytes).
    Removing stm32f1xx_hal_rcc.o(i.HAL_RCC_DeInit), (220 bytes).
    Removing stm32f1xx_hal_rcc.o(i.HAL_RCC_DisableCSS), (12 bytes).
    Removing stm32f1xx_hal_rcc.o(i.HAL_RCC_EnableCSS), (12 bytes).
    Removing stm32f1xx_hal_rcc.o(i.HAL_RCC_GetClockConfig), (64 bytes).
    Removing stm32f1xx_hal_rcc.o(i.HAL_RCC_GetHCLKFreq), (12 bytes).
    Removing stm32f1xx_hal_rcc.o(i.HAL_RCC_GetOscConfig), (144 bytes).
    Removing stm32f1xx_hal_rcc.o(i.HAL_RCC_MCOConfig), (72 bytes).
    Removing stm32f1xx_hal_rcc.o(i.HAL_RCC_NMI_IRQHandler), (24 bytes).
    Removing stm32f1xx_hal_rcc_ex.o(.rev16_text), (4 bytes).
    Removing stm32f1xx_hal_rcc_ex.o(.revsh_text), (4 bytes).
    Removing stm32f1xx_hal_rcc_ex.o(.rrx_text), (6 bytes).
    Removing stm32f1xx_hal_rcc_ex.o(i.HAL_RCCEx_GetPeriphCLKConfig), (52 bytes).
    Removing stm32f1xx_hal_rcc_ex.o(i.HAL_RCCEx_GetPeriphCLKFreq), (184 bytes).
    Removing stm32f1xx_hal_rcc_ex.o(i.HAL_RCCEx_PeriphCLKConfig), (236 bytes).
    Removing stm32f1xx_hal_rcc_ex.o(.constdata), (18 bytes).
    Removing stm32f1xx_hal_gpio.o(.rev16_text), (4 bytes).
    Removing stm32f1xx_hal_gpio.o(.revsh_text), (4 bytes).
    Removing stm32f1xx_hal_gpio.o(.rrx_text), (6 bytes).
    Removing stm32f1xx_hal_gpio.o(i.HAL_GPIO_DeInit), (316 bytes).
    Removing stm32f1xx_hal_gpio.o(i.HAL_GPIO_EXTI_Callback), (2 bytes).
    Removing stm32f1xx_hal_gpio.o(i.HAL_GPIO_EXTI_IRQHandler), (24 bytes).
    Removing stm32f1xx_hal_gpio.o(i.HAL_GPIO_LockPin), (34 bytes).
    Removing stm32f1xx_hal_dma.o(.rev16_text), (4 bytes).
    Removing stm32f1xx_hal_dma.o(.revsh_text), (4 bytes).
    Removing stm32f1xx_hal_dma.o(.rrx_text), (6 bytes).
    Removing stm32f1xx_hal_dma.o(i.DMA_SetConfig), (42 bytes).
    Removing stm32f1xx_hal_dma.o(i.HAL_DMA_DeInit), (128 bytes).
    Removing stm32f1xx_hal_dma.o(i.HAL_DMA_GetError), (4 bytes).
    Removing stm32f1xx_hal_dma.o(i.HAL_DMA_GetState), (6 bytes).
    Removing stm32f1xx_hal_dma.o(i.HAL_DMA_IRQHandler), (584 bytes).
    Removing stm32f1xx_hal_dma.o(i.HAL_DMA_Init), (124 bytes).
    Removing stm32f1xx_hal_dma.o(i.HAL_DMA_PollForTransfer), (988 bytes).
    Removing stm32f1xx_hal_dma.o(i.HAL_DMA_RegisterCallback), (74 bytes).
    Removing stm32f1xx_hal_dma.o(i.HAL_DMA_Start), (80 bytes).
    Removing stm32f1xx_hal_dma.o(i.HAL_DMA_Start_IT), (112 bytes).
    Removing stm32f1xx_hal_dma.o(i.HAL_DMA_UnRegisterCallback), (82 bytes).
    Removing stm32f1xx_hal_cortex.o(.rev16_text), (4 bytes).
    Removing stm32f1xx_hal_cortex.o(.revsh_text), (4 bytes).
    Removing stm32f1xx_hal_cortex.o(.rrx_text), (6 bytes).
    Removing stm32f1xx_hal_cortex.o(i.HAL_NVIC_ClearPendingIRQ), (26 bytes).
    Removing stm32f1xx_hal_cortex.o(i.HAL_NVIC_DisableIRQ), (34 bytes).
    Removing stm32f1xx_hal_cortex.o(i.HAL_NVIC_GetActive), (36 bytes).
    Removing stm32f1xx_hal_cortex.o(i.HAL_NVIC_GetPendingIRQ), (36 bytes).
    Removing stm32f1xx_hal_cortex.o(i.HAL_NVIC_GetPriority), (82 bytes).
    Removing stm32f1xx_hal_cortex.o(i.HAL_NVIC_GetPriorityGrouping), (16 bytes).
    Removing stm32f1xx_hal_cortex.o(i.HAL_NVIC_SetPendingIRQ), (26 bytes).
    Removing stm32f1xx_hal_cortex.o(i.HAL_NVIC_SystemReset), (36 bytes).
    Removing stm32f1xx_hal_cortex.o(i.HAL_SYSTICK_CLKSourceConfig), (24 bytes).
    Removing stm32f1xx_hal_cortex.o(i.HAL_SYSTICK_Callback), (2 bytes).
    Removing stm32f1xx_hal_cortex.o(i.HAL_SYSTICK_IRQHandler), (8 bytes).
    Removing stm32f1xx_hal_pwr.o(.rev16_text), (4 bytes).
    Removing stm32f1xx_hal_pwr.o(.revsh_text), (4 bytes).
    Removing stm32f1xx_hal_pwr.o(.rrx_text), (6 bytes).
    Removing stm32f1xx_hal_pwr.o(i.HAL_PWR_ConfigPVD), (124 bytes).
    Removing stm32f1xx_hal_pwr.o(i.HAL_PWR_DeInit), (24 bytes).
    Removing stm32f1xx_hal_pwr.o(i.HAL_PWR_DisableBkUpAccess), (12 bytes).
    Removing stm32f1xx_hal_pwr.o(i.HAL_PWR_DisablePVD), (12 bytes).
    Removing stm32f1xx_hal_pwr.o(i.HAL_PWR_DisableSEVOnPend), (16 bytes).
    Removing stm32f1xx_hal_pwr.o(i.HAL_PWR_DisableSleepOnExit), (16 bytes).
    Removing stm32f1xx_hal_pwr.o(i.HAL_PWR_DisableWakeUpPin), (28 bytes).
    Removing stm32f1xx_hal_pwr.o(i.HAL_PWR_EnableBkUpAccess), (12 bytes).
    Removing stm32f1xx_hal_pwr.o(i.HAL_PWR_EnablePVD), (12 bytes).
    Removing stm32f1xx_hal_pwr.o(i.HAL_PWR_EnableSEVOnPend), (16 bytes).
    Removing stm32f1xx_hal_pwr.o(i.HAL_PWR_EnableSleepOnExit), (16 bytes).
    Removing stm32f1xx_hal_pwr.o(i.HAL_PWR_EnableWakeUpPin), (28 bytes).
    Removing stm32f1xx_hal_pwr.o(i.HAL_PWR_EnterSLEEPMode), (32 bytes).
    Removing stm32f1xx_hal_pwr.o(i.HAL_PWR_EnterSTANDBYMode), (32 bytes).
    Removing stm32f1xx_hal_pwr.o(i.HAL_PWR_EnterSTOPMode), (68 bytes).
    Removing stm32f1xx_hal_pwr.o(i.HAL_PWR_PVDCallback), (2 bytes).
    Removing stm32f1xx_hal_pwr.o(i.HAL_PWR_PVD_IRQHandler), (28 bytes).
    Removing stm32f1xx_hal_pwr.o(i.PWR_OverloadWfe), (6 bytes).
    Removing stm32f1xx_hal_flash.o(.rev16_text), (4 bytes).
    Removing stm32f1xx_hal_flash.o(.revsh_text), (4 bytes).
    Removing stm32f1xx_hal_flash.o(.rrx_text), (6 bytes).
    Removing stm32f1xx_hal_flash.o(i.FLASH_Program_HalfWord), (28 bytes).
    Removing stm32f1xx_hal_flash.o(i.FLASH_SetErrorCode), (92 bytes).
    Removing stm32f1xx_hal_flash.o(i.FLASH_WaitForLastOperation), (84 bytes).
    Removing stm32f1xx_hal_flash.o(i.HAL_FLASH_EndOfOperationCallback), (2 bytes).
    Removing stm32f1xx_hal_flash.o(i.HAL_FLASH_GetError), (12 bytes).
    Removing stm32f1xx_hal_flash.o(i.HAL_FLASH_IRQHandler), (264 bytes).
    Removing stm32f1xx_hal_flash.o(i.HAL_FLASH_Lock), (20 bytes).
    Removing stm32f1xx_hal_flash.o(i.HAL_FLASH_OB_Launch), (4 bytes).
    Removing stm32f1xx_hal_flash.o(i.HAL_FLASH_OB_Lock), (20 bytes).
    Removing stm32f1xx_hal_flash.o(i.HAL_FLASH_OB_Unlock), (36 bytes).
    Removing stm32f1xx_hal_flash.o(i.HAL_FLASH_OperationErrorCallback), (2 bytes).
    Removing stm32f1xx_hal_flash.o(i.HAL_FLASH_Program), (128 bytes).
    Removing stm32f1xx_hal_flash.o(i.HAL_FLASH_Program_IT), (100 bytes).
    Removing stm32f1xx_hal_flash.o(i.HAL_FLASH_Unlock), (40 bytes).
    Removing stm32f1xx_hal_flash.o(.bss), (32 bytes).
    Removing stm32f1xx_hal_flash_ex.o(.rev16_text), (4 bytes).
    Removing stm32f1xx_hal_flash_ex.o(.revsh_text), (4 bytes).
    Removing stm32f1xx_hal_flash_ex.o(.rrx_text), (6 bytes).
    Removing stm32f1xx_hal_flash_ex.o(i.FLASH_MassErase), (36 bytes).
    Removing stm32f1xx_hal_flash_ex.o(i.FLASH_OB_DisableWRP), (176 bytes).
    Removing stm32f1xx_hal_flash_ex.o(i.FLASH_OB_EnableWRP), (176 bytes).
    Removing stm32f1xx_hal_flash_ex.o(i.FLASH_OB_GetRDP), (24 bytes).
    Removing stm32f1xx_hal_flash_ex.o(i.FLASH_OB_RDP_LevelConfig), (100 bytes).
    Removing stm32f1xx_hal_flash_ex.o(i.FLASH_PageErase), (36 bytes).
    Removing stm32f1xx_hal_flash_ex.o(i.HAL_FLASHEx_Erase), (168 bytes).
    Removing stm32f1xx_hal_flash_ex.o(i.HAL_FLASHEx_Erase_IT), (84 bytes).
    Removing stm32f1xx_hal_flash_ex.o(i.HAL_FLASHEx_OBErase), (84 bytes).
    Removing stm32f1xx_hal_flash_ex.o(i.HAL_FLASHEx_OBGetConfig), (36 bytes).
    Removing stm32f1xx_hal_flash_ex.o(i.HAL_FLASHEx_OBGetUserData), (32 bytes).
    Removing stm32f1xx_hal_flash_ex.o(i.HAL_FLASHEx_OBProgram), (200 bytes).
    Removing stm32f1xx_hal_exti.o(.rev16_text), (4 bytes).
    Removing stm32f1xx_hal_exti.o(.revsh_text), (4 bytes).
    Removing stm32f1xx_hal_exti.o(.rrx_text), (6 bytes).
    Removing stm32f1xx_hal_exti.o(i.HAL_EXTI_ClearConfigLine), (104 bytes).
    Removing stm32f1xx_hal_exti.o(i.HAL_EXTI_ClearPending), (20 bytes).
    Removing stm32f1xx_hal_exti.o(i.HAL_EXTI_GenerateSWI), (20 bytes).
    Removing stm32f1xx_hal_exti.o(i.HAL_EXTI_GetConfigLine), (140 bytes).
    Removing stm32f1xx_hal_exti.o(i.HAL_EXTI_GetHandle), (12 bytes).
    Removing stm32f1xx_hal_exti.o(i.HAL_EXTI_GetPending), (24 bytes).
    Removing stm32f1xx_hal_exti.o(i.HAL_EXTI_IRQHandler), (36 bytes).
    Removing stm32f1xx_hal_exti.o(i.HAL_EXTI_RegisterCallback), (14 bytes).
    Removing stm32f1xx_hal_exti.o(i.HAL_EXTI_SetConfigLine), (164 bytes).
    Removing stm32f1xx_hal_uart.o(.rev16_text), (4 bytes).
    Removing stm32f1xx_hal_uart.o(.revsh_text), (4 bytes).
    Removing stm32f1xx_hal_uart.o(.rrx_text), (6 bytes).
    Removing stm32f1xx_hal_uart.o(i.HAL_HalfDuplex_EnableReceiver), (50 bytes).
    Removing stm32f1xx_hal_uart.o(i.HAL_HalfDuplex_EnableTransmitter), (50 bytes).
    Removing stm32f1xx_hal_uart.o(i.HAL_HalfDuplex_Init), (110 bytes).
    Removing stm32f1xx_hal_uart.o(i.HAL_LIN_Init), (130 bytes).
    Removing stm32f1xx_hal_uart.o(i.HAL_LIN_SendBreak), (60 bytes).
    Removing stm32f1xx_hal_uart.o(i.HAL_MultiProcessor_EnterMuteMode), (62 bytes).
    Removing stm32f1xx_hal_uart.o(i.HAL_MultiProcessor_ExitMuteMode), (62 bytes).
    Removing stm32f1xx_hal_uart.o(i.HAL_MultiProcessor_Init), (144 bytes).
    Removing stm32f1xx_hal_uart.o(i.HAL_UARTEx_GetRxEventType), (4 bytes).
    Removing stm32f1xx_hal_uart.o(i.HAL_UARTEx_ReceiveToIdle), (240 bytes).
    Removing stm32f1xx_hal_uart.o(i.HAL_UARTEx_ReceiveToIdle_DMA), (78 bytes).
    Removing stm32f1xx_hal_uart.o(i.HAL_UARTEx_ReceiveToIdle_IT), (78 bytes).
    Removing stm32f1xx_hal_uart.o(i.HAL_UART_Abort), (210 bytes).
    Removing stm32f1xx_hal_uart.o(i.HAL_UART_AbortCpltCallback), (2 bytes).
    Removing stm32f1xx_hal_uart.o(i.HAL_UART_AbortReceive), (148 bytes).
    Removing stm32f1xx_hal_uart.o(i.HAL_UART_AbortReceiveCpltCallback), (2 bytes).
    Removing stm32f1xx_hal_uart.o(i.HAL_UART_AbortReceive_IT), (152 bytes).
    Removing stm32f1xx_hal_uart.o(i.HAL_UART_AbortTransmit), (98 bytes).
    Removing stm32f1xx_hal_uart.o(i.HAL_UART_AbortTransmitCpltCallback), (2 bytes).
    Removing stm32f1xx_hal_uart.o(i.HAL_UART_AbortTransmit_IT), (104 bytes).
    Removing stm32f1xx_hal_uart.o(i.HAL_UART_Abort_IT), (244 bytes).
    Removing stm32f1xx_hal_uart.o(i.HAL_UART_DMAPause), (120 bytes).
    Removing stm32f1xx_hal_uart.o(i.HAL_UART_DMAResume), (114 bytes).
    Removing stm32f1xx_hal_uart.o(i.HAL_UART_DMAStop), (112 bytes).
    Removing stm32f1xx_hal_uart.o(i.HAL_UART_DeInit), (54 bytes).
    Removing stm32f1xx_hal_uart.o(i.HAL_UART_GetError), (4 bytes).
    Removing stm32f1xx_hal_uart.o(i.HAL_UART_GetState), (10 bytes).
    Removing stm32f1xx_hal_uart.o(i.HAL_UART_MspDeInit), (2 bytes).
    Removing stm32f1xx_hal_uart.o(i.HAL_UART_MspInit), (2 bytes).
    Removing stm32f1xx_hal_uart.o(i.HAL_UART_Receive), (172 bytes).
    Removing stm32f1xx_hal_uart.o(i.HAL_UART_Receive_DMA), (28 bytes).
    Removing stm32f1xx_hal_uart.o(i.HAL_UART_Receive_IT), (28 bytes).
    Removing stm32f1xx_hal_uart.o(i.HAL_UART_RxHalfCpltCallback), (2 bytes).
    Removing stm32f1xx_hal_uart.o(i.HAL_UART_Transmit_DMA), (120 bytes).
    Removing stm32f1xx_hal_uart.o(i.HAL_UART_Transmit_IT), (50 bytes).
    Removing stm32f1xx_hal_uart.o(i.HAL_UART_TxHalfCpltCallback), (2 bytes).
    Removing stm32f1xx_hal_uart.o(i.UART_DMAError), (74 bytes).
    Removing stm32f1xx_hal_uart.o(i.UART_DMAReceiveCplt), (134 bytes).
    Removing stm32f1xx_hal_uart.o(i.UART_DMARxAbortCallback), (44 bytes).
    Removing stm32f1xx_hal_uart.o(i.UART_DMARxHalfCplt), (30 bytes).
    Removing stm32f1xx_hal_uart.o(i.UART_DMARxOnlyAbortCallback), (22 bytes).
    Removing stm32f1xx_hal_uart.o(i.UART_DMATransmitCplt), (66 bytes).
    Removing stm32f1xx_hal_uart.o(i.UART_DMATxAbortCallback), (44 bytes).
    Removing stm32f1xx_hal_uart.o(i.UART_DMATxHalfCplt), (10 bytes).
    Removing stm32f1xx_hal_uart.o(i.UART_DMATxOnlyAbortCallback), (20 bytes).
    Removing stm32f1xx_hal_uart.o(i.UART_EndTxTransfer), (28 bytes).
    Removing stm32f1xx_hal_uart.o(i.UART_Start_Receive_DMA), (144 bytes).
    Removing stm32f1xx_hal_uart.o(i.UART_Start_Receive_IT), (54 bytes).
    Removing system_stm32f1xx.o(.rev16_text), (4 bytes).
    Removing system_stm32f1xx.o(.revsh_text), (4 bytes).
    Removing system_stm32f1xx.o(.rrx_text), (6 bytes).
    Removing system_stm32f1xx.o(i.SystemCoreClockUpdate), (104 bytes).
    Removing bsp.o(.rev16_text), (4 bytes).
    Removing bsp.o(.revsh_text), (4 bytes).
    Removing bsp.o(.rrx_text), (6 bytes).
    Removing bsp.o(i.bsp_getdeviceid), (44 bytes).
    Removing bsp.o(.data), (4 bytes).
    Removing uart_interface.o(.rev16_text), (4 bytes).
    Removing uart_interface.o(.revsh_text), (4 bytes).
    Removing uart_interface.o(.rrx_text), (6 bytes).
    Removing uart_interface.o(i.uart_interface__alloc_rev_uartmsg), (22 bytes).
    Removing uart_interface.o(i.uart_interface__free), (60 bytes).
    Removing uart_interface.o(i.uart_interface__handle_one_byte), (120 bytes).
    Removing uart_interface.o(i.uart_interface__init), (72 bytes).
    Removing uart_interface.o(i.uart_interface__rev_data), (118 bytes).
    Removing uart_interface.o(i.uart_interface__send_data), (162 bytes).
    Removing uart_interface.o(i.uart_interface__send_one_frame), (264 bytes).
    Removing uart_interface.o(i.uart_interface__start_receive), (124 bytes).
    Removing uart_interface.o(i.uart_interface__stop_receive), (16 bytes).
    Removing uart_interface.o(i.uart_interface__transmit_complete), (26 bytes).
    Removing uart_interface.o(i.uart_interface__transmit_complete_run), (126 bytes).
    Removing uart_interface.o(i.uart_wincallback), (170 bytes).
    Removing vchannel.o(i.vchannel_alloc_message), (14 bytes).
    Removing vchannel.o(i.vchannel_execute_message), (90 bytes).
    Removing vchannel.o(i.vchannel_free), (36 bytes).
    Removing vchannel.o(i.vchannel_free_message), (40 bytes).
    Removing vchannel.o(i.vchannel_new), (88 bytes).
    Removing vchannel.o(i.vchannel_put_message), (16 bytes).
    Removing vchannel.o(i.vchannel_send_message), (60 bytes).
    Removing vchannel.o(i.vchannel_send_message_no_para), (54 bytes).
    Removing vchannel.o(i.vchannel_send_message_p), (60 bytes).
    Removing vchannel.o(i.vchannel_wait_message), (72 bytes).
    Removing vchannel.o(i.vchannel_wait_multi_messages), (74 bytes).
    Removing vchannel.o(i.vchannel_waitlist_add), (32 bytes).
    Removing vchannel.o(i.vchannel_waitlist_clear), (12 bytes).
    Removing vkey.o(.rev16_text), (4 bytes).
    Removing vkey.o(.revsh_text), (4 bytes).
    Removing vkey.o(.rrx_text), (6 bytes).
    Removing vlist.o(i.vlist__append), (58 bytes).
    Removing vlist.o(i.vlist__begin_iterator), (36 bytes).
    Removing vlist.o(i.vlist__clear), (30 bytes).
    Removing vlist.o(i.vlist__count), (8 bytes).
    Removing vlist.o(i.vlist__create), (20 bytes).
    Removing vlist.o(i.vlist__next), (38 bytes).
    Removing vlist.o(i.vlist__pop), (66 bytes).
    Removing vlist.o(i.vlist__remove), (96 bytes).
    Removing vlist.o(i.vlist__search), (18 bytes).
    Removing vlist.o(i.vlist__virtual_pop), (14 bytes).
    Removing vmsgexec.o(i.msgexec_get_topwindow), (12 bytes).
    Removing vmsgexec.o(i.msgexec_get_userdata), (8 bytes).
    Removing vmsgexec.o(i.vgui_send_key_msg), (56 bytes).
    Removing vmsgexec.o(i.vmw_stop_timer), (12 bytes).
    Removing vmsgexec.o(i.vwm_default_proc), (2 bytes).
    Removing vmsgexec.o(i.vwm_restart_timer), (12 bytes).
    Removing vmsgexec.o(i.vwm_send_message_no_para), (38 bytes).
    Removing vmsgexec.o(i.vwm_send_message_p), (48 bytes).
    Removing vmsgexec.o(.bss), (24 bytes).
    Removing vmsgexec.o(.constdata), (8 bytes).
    Removing dht11.o(.rev16_text), (4 bytes).
    Removing dht11.o(.revsh_text), (4 bytes).
    Removing dht11.o(.rrx_text), (6 bytes).
    Removing app.o(.rev16_text), (4 bytes).
    Removing app.o(.revsh_text), (4 bytes).
    Removing app.o(.rrx_text), (6 bytes).
    Removing tlsf.o(.rev16_text), (4 bytes).
    Removing tlsf.o(.revsh_text), (4 bytes).
    Removing tlsf.o(.rrx_text), (6 bytes).
    Removing tlsf.o(i.add_new_area), (238 bytes).
    Removing tlsf.o(i.calloc_ex), (34 bytes).
    Removing tlsf.o(i.destroy_memory_pool), (10 bytes).
    Removing tlsf.o(i.get_max_size), (4 bytes).
    Removing tlsf.o(i.get_used_size), (4 bytes).
    Removing tlsf.o(i.realloc_ex), (652 bytes).
    Removing tlsf.o(i.tlsf_calloc), (64 bytes).
    Removing tlsf.o(i.tlsf_realloc), (64 bytes).
    Removing elog.o(i.elog_assert_set_hook), (12 bytes).
    Removing elog.o(i.elog_deinit), (28 bytes).
    Removing elog.o(i.elog_find_lvl), (828 bytes).
    Removing elog.o(i.elog_find_tag), (448 bytes).
    Removing elog.o(i.elog_get_output_enabled), (12 bytes).
    Removing elog.o(i.elog_get_text_color_enabled), (12 bytes).
    Removing elog.o(i.elog_hexdump), (364 bytes).
    Removing elog.o(i.elog_raw), (72 bytes).
    Removing elog.o(i.elog_set_filter), (192 bytes).
    Removing elog.o(i.elog_set_filter_kw), (16 bytes).
    Removing elog.o(i.elog_set_filter_tag), (16 bytes).
    Removing elog.o(i.elog_set_filter_tag_lvl), (424 bytes).
    Removing elog.o(i.elog_set_output_enabled), (12 bytes).
    Removing elog.o(i.elog_set_text_color_enabled), (12 bytes).
    Removing elog.o(i.elog_stop), (136 bytes).
    Removing elog_utils.o(i.elog_cpyln), (264 bytes).
    Removing elog_utils.o(i.elog_memcpy), (232 bytes).
    Removing elog_port.o(i.elog_port_deinit), (2 bytes).
    Removing esp8266.o(.rev16_text), (4 bytes).
    Removing esp8266.o(.revsh_text), (4 bytes).
    Removing esp8266.o(.rrx_text), (6 bytes).
    Removing esp8266.o(i.ESP8266_Clear), (28 bytes).
    Removing esp8266.o(i.ESP8266_GetIPD), (64 bytes).
    Removing esp8266.o(i.ESP8266_Init), (224 bytes).
    Removing esp8266.o(i.ESP8266_SendCmd), (72 bytes).
    Removing esp8266.o(i.ESP8266_SendData), (72 bytes).
    Removing esp8266.o(i.ESP8266_WaitRecive), (32 bytes).
    Removing esp8266.o(i.Usart_SendString), (24 bytes).
    Removing esp8266.o(.bss), (128 bytes).
    Removing esp8266.o(.data), (4 bytes).
    Removing rtx_conf_cm.o(.constdata), (4 bytes).
    Removing rtx_conf_cm.o(.constdata), (2 bytes).
    Removing rtx_conf_cm.o(.constdata), (2 bytes).
    Removing rtx_conf_cm.o(.data), (4 bytes).
    Removing rt_cmsis.o(.rev16_text), (4 bytes).
    Removing rt_cmsis.o(.revsh_text), (4 bytes).
    Removing rt_cmsis.o(.rrx_text), (6 bytes).
    Removing rt_cmsis.o(i.isrSemaphoreRelease), (40 bytes).
    Removing rt_cmsis.o(i.isrSignalSet), (36 bytes).
    Removing rt_cmsis.o(i.osDelay), (24 bytes).
    Removing rt_cmsis.o(i.osKernelRunning), (36 bytes).
    Removing rt_cmsis.o(i.osKernelSysTick), (24 bytes).
    Removing rt_cmsis.o(i.osMailAlloc), (28 bytes).
    Removing rt_cmsis.o(i.osMessageCreate), (44 bytes).
    Removing rt_cmsis.o(i.osMutexDelete), (24 bytes).
    Removing rt_cmsis.o(i.osPoolAlloc), (32 bytes).
    Removing rt_cmsis.o(i.osPoolCAlloc), (52 bytes).
    Removing rt_cmsis.o(i.osPoolCreate), (44 bytes).
    Removing rt_cmsis.o(i.osPoolFree), (32 bytes).
    Removing rt_cmsis.o(i.osSemaphoreCreate), (44 bytes).
    Removing rt_cmsis.o(i.osSemaphoreDelete), (24 bytes).
    Removing rt_cmsis.o(i.osSemaphoreRelease), (24 bytes).
    Removing rt_cmsis.o(i.osSemaphoreWait), (24 bytes).
    Removing rt_cmsis.o(i.osSignalClear), (24 bytes).
    Removing rt_cmsis.o(i.osSignalSet), (24 bytes).
    Removing rt_cmsis.o(i.osSignalWait), (24 bytes).
    Removing rt_cmsis.o(i.osThreadGetId), (24 bytes).
    Removing rt_cmsis.o(i.osThreadGetPriority), (24 bytes).
    Removing rt_cmsis.o(i.osThreadSetPriority), (24 bytes).
    Removing rt_cmsis.o(i.osThreadTerminate), (24 bytes).
    Removing rt_cmsis.o(i.osThreadYield), (24 bytes).
    Removing rt_cmsis.o(i.osTimerStop), (24 bytes).
    Removing rt_cmsis.o(i.osWait), (4 bytes).
    Removing rt_cmsis.o(i.os_resume), (12 bytes).
    Removing rt_cmsis.o(i.os_suspend), (12 bytes).
    Removing rt_cmsis.o(i.svcDelay), (18 bytes).
    Removing rt_cmsis.o(i.svcKernelRunning), (12 bytes).
    Removing rt_cmsis.o(i.svcKernelSysTick), (56 bytes).
    Removing rt_cmsis.o(i.svcMutexDelete), (26 bytes).
    Removing rt_cmsis.o(i.svcPoolCreate), (40 bytes).
    Removing rt_cmsis.o(i.svcSemaphoreCreate), (36 bytes).
    Removing rt_cmsis.o(i.svcSemaphoreDelete), (26 bytes).
    Removing rt_cmsis.o(i.svcSemaphoreRelease), (40 bytes).
    Removing rt_cmsis.o(i.svcSemaphoreWait), (50 bytes).
    Removing rt_cmsis.o(i.svcSignalClear), (36 bytes).
    Removing rt_cmsis.o(i.svcSignalSet), (36 bytes).
    Removing rt_cmsis.o(i.svcSignalWait), (84 bytes).
    Removing rt_cmsis.o(i.svcThreadGetPriority), (18 bytes).
    Removing rt_cmsis.o(i.svcThreadSetPriority), (46 bytes).
    Removing rt_cmsis.o(i.svcThreadYield), (10 bytes).
    Removing rt_cmsis.o(i.svcTimerStop), (36 bytes).
    Removing rt_cmsis.o(i.sysPoolAlloc), (10 bytes).
    Removing rt_cmsis.o(i.sysPoolFree), (20 bytes).
    Removing rt_cmsis.o(i.sysUserTimerUpdate), (48 bytes).
    Removing rt_cmsis.o(i.sysUserTimerWakeupTime), (20 bytes).
    Removing rt_time.o(i.rt_dly_wait), (6 bytes).
    Removing rt_time.o(i.rt_itv_set), (24 bytes).
    Removing rt_time.o(i.rt_itv_wait), (40 bytes).
    Removing rt_time.o(i.rt_time_get), (12 bytes).
    Removing rt_task.o(i.rt_tsk_pass), (48 bytes).
    Removing rt_system.o(.emb_text), (0 bytes).
    Removing rt_system.o(i.os_tick_ovf), (16 bytes).
    Removing rt_system.o(i.os_tick_val), (20 bytes).
    Removing rt_system.o(i.rt_resume), (136 bytes).
    Removing rt_system.o(i.rt_suspend), (36 bytes).
    Removing rt_system.o(i.rt_tsk_lock), (80 bytes).
    Removing rt_system.o(i.rt_tsk_unlock), (80 bytes).
    Removing rt_event.o(i.isr_evt_set), (40 bytes).
    Removing rt_event.o(i.rt_evt_clr), (28 bytes).
    Removing rt_event.o(i.rt_evt_get), (12 bytes).
    Removing rt_event.o(i.rt_evt_set), (92 bytes).
    Removing rt_event.o(i.rt_evt_wait), (60 bytes).
    Removing rt_list.o(i.rt_get_same_rdy_prio), (36 bytes).
    Removing rt_semaphore.o(i.isr_sem_send), (16 bytes).
    Removing rt_semaphore.o(i.rt_sem_delete), (92 bytes).
    Removing rt_semaphore.o(i.rt_sem_init), (12 bytes).
    Removing rt_semaphore.o(i.rt_sem_send), (42 bytes).
    Removing rt_semaphore.o(i.rt_sem_wait), (64 bytes).
    Removing rt_mutex.o(i.rt_mut_delete), (176 bytes).
    Removing rt_membox.o(i._calloc_box), (30 bytes).

557 unused section(s) (total 37510 bytes) removed from the image.

==============================================================================

Image Symbol Table

    Local Symbols

    Symbol Name                              Value     Ov Type        Size  Object(Section)

    ../Core/Src/main.c                       0x00000000   Number         0  main.o ABSOLUTE
    ../Core/Src/stm32f1xx_hal_msp.c          0x00000000   Number         0  stm32f1xx_hal_msp.o ABSOLUTE
    ../Core/Src/stm32f1xx_it.c               0x00000000   Number         0  stm32f1xx_it.o ABSOLUTE
    ../Core/Src/system_stm32f1xx.c           0x00000000   Number         0  system_stm32f1xx.o ABSOLUTE
    ../Drivers/STM32F1xx_HAL_Driver/Src/stm32f1xx_hal.c 0x00000000   Number         0  stm32f1xx_hal.o ABSOLUTE
    ../Drivers/STM32F1xx_HAL_Driver/Src/stm32f1xx_hal_cortex.c 0x00000000   Number         0  stm32f1xx_hal_cortex.o ABSOLUTE
    ../Drivers/STM32F1xx_HAL_Driver/Src/stm32f1xx_hal_dma.c 0x00000000   Number         0  stm32f1xx_hal_dma.o ABSOLUTE
    ../Drivers/STM32F1xx_HAL_Driver/Src/stm32f1xx_hal_exti.c 0x00000000   Number         0  stm32f1xx_hal_exti.o ABSOLUTE
    ../Drivers/STM32F1xx_HAL_Driver/Src/stm32f1xx_hal_flash.c 0x00000000   Number         0  stm32f1xx_hal_flash.o ABSOLUTE
    ../Drivers/STM32F1xx_HAL_Driver/Src/stm32f1xx_hal_flash_ex.c 0x00000000   Number         0  stm32f1xx_hal_flash_ex.o ABSOLUTE
    ../Drivers/STM32F1xx_HAL_Driver/Src/stm32f1xx_hal_gpio.c 0x00000000   Number         0  stm32f1xx_hal_gpio.o ABSOLUTE
    ../Drivers/STM32F1xx_HAL_Driver/Src/stm32f1xx_hal_gpio_ex.c 0x00000000   Number         0  stm32f1xx_hal_gpio_ex.o ABSOLUTE
    ../Drivers/STM32F1xx_HAL_Driver/Src/stm32f1xx_hal_pwr.c 0x00000000   Number         0  stm32f1xx_hal_pwr.o ABSOLUTE
    ../Drivers/STM32F1xx_HAL_Driver/Src/stm32f1xx_hal_rcc.c 0x00000000   Number         0  stm32f1xx_hal_rcc.o ABSOLUTE
    ../Drivers/STM32F1xx_HAL_Driver/Src/stm32f1xx_hal_rcc_ex.c 0x00000000   Number         0  stm32f1xx_hal_rcc_ex.o ABSOLUTE
    ../Drivers/STM32F1xx_HAL_Driver/Src/stm32f1xx_hal_tim.c 0x00000000   Number         0  stm32f1xx_hal_tim.o ABSOLUTE
    ../Drivers/STM32F1xx_HAL_Driver/Src/stm32f1xx_hal_tim_ex.c 0x00000000   Number         0  stm32f1xx_hal_tim_ex.o ABSOLUTE
    ../Drivers/STM32F1xx_HAL_Driver/Src/stm32f1xx_hal_uart.c 0x00000000   Number         0  stm32f1xx_hal_uart.o ABSOLUTE
    ../clib/microlib/division.c              0x00000000   Number         0  uidiv.o ABSOLUTE
    ../clib/microlib/division.c              0x00000000   Number         0  uldiv.o ABSOLUTE
    ../clib/microlib/init/entry.s            0x00000000   Number         0  entry8b.o ABSOLUTE
    ../clib/microlib/init/entry.s            0x00000000   Number         0  entry10a.o ABSOLUTE
    ../clib/microlib/init/entry.s            0x00000000   Number         0  entry10b.o ABSOLUTE
    ../clib/microlib/init/entry.s            0x00000000   Number         0  entry7b.o ABSOLUTE
    ../clib/microlib/init/entry.s            0x00000000   Number         0  entry11a.o ABSOLUTE
    ../clib/microlib/init/entry.s            0x00000000   Number         0  entry11b.o ABSOLUTE
    ../clib/microlib/init/entry.s            0x00000000   Number         0  entry12a.o ABSOLUTE
    ../clib/microlib/init/entry.s            0x00000000   Number         0  entry12b.o ABSOLUTE
    ../clib/microlib/init/entry.s            0x00000000   Number         0  entry8a.o ABSOLUTE
    ../clib/microlib/init/entry.s            0x00000000   Number         0  entry2.o ABSOLUTE
    ../clib/microlib/init/entry.s            0x00000000   Number         0  entry.o ABSOLUTE
    ../clib/microlib/init/entry.s            0x00000000   Number         0  entry7a.o ABSOLUTE
    ../clib/microlib/init/entry.s            0x00000000   Number         0  entry5.o ABSOLUTE
    ../clib/microlib/longlong.c              0x00000000   Number         0  llsshr.o ABSOLUTE
    ../clib/microlib/longlong.c              0x00000000   Number         0  llshl.o ABSOLUTE
    ../clib/microlib/longlong.c              0x00000000   Number         0  llushr.o ABSOLUTE
    ../clib/microlib/printf/printf.c         0x00000000   Number         0  printf6.o ABSOLUTE
    ../clib/microlib/printf/printf.c         0x00000000   Number         0  printf7.o ABSOLUTE
    ../clib/microlib/printf/printf.c         0x00000000   Number         0  printf8.o ABSOLUTE
    ../clib/microlib/printf/printf.c         0x00000000   Number         0  printfa.o ABSOLUTE
    ../clib/microlib/printf/printf.c         0x00000000   Number         0  printf1.o ABSOLUTE
    ../clib/microlib/printf/printf.c         0x00000000   Number         0  printf0.o ABSOLUTE
    ../clib/microlib/printf/printf.c         0x00000000   Number         0  printfb.o ABSOLUTE
    ../clib/microlib/printf/printf.c         0x00000000   Number         0  printf3.o ABSOLUTE
    ../clib/microlib/printf/printf.c         0x00000000   Number         0  printf5.o ABSOLUTE
    ../clib/microlib/printf/printf.c         0x00000000   Number         0  printf4.o ABSOLUTE
    ../clib/microlib/printf/printf.c         0x00000000   Number         0  printf2.o ABSOLUTE
    ../clib/microlib/printf/stubs.s          0x00000000   Number         0  stubs.o ABSOLUTE
    ../clib/microlib/stdio/streams.c         0x00000000   Number         0  stdout.o ABSOLUTE
    ../clib/microlib/string/memchr.c         0x00000000   Number         0  memchr.o ABSOLUTE
    ../clib/microlib/string/memcpy.c         0x00000000   Number         0  memcpya.o ABSOLUTE
    ../clib/microlib/string/memcpy.c         0x00000000   Number         0  memcpyb.o ABSOLUTE
    ../clib/microlib/string/memset.c         0x00000000   Number         0  memseta.o ABSOLUTE
    ../clib/microlib/string/strchr.c         0x00000000   Number         0  strchr.o ABSOLUTE
    ../clib/microlib/string/strlen.c         0x00000000   Number         0  strlen.o ABSOLUTE
    ../clib/microlib/string/strncmp.c        0x00000000   Number         0  strncmp.o ABSOLUTE
    ../clib/microlib/string/strncpy.c        0x00000000   Number         0  strncpy.o ABSOLUTE
    ../clib/microlib/string/strstr.c         0x00000000   Number         0  strstr.o ABSOLUTE
    ../clib/microlib/stubs.s                 0x00000000   Number         0  iusefp.o ABSOLUTE
    ../fplib/microlib/fpadd.c                0x00000000   Number         0  dadd.o ABSOLUTE
    ../fplib/microlib/fpdiv.c                0x00000000   Number         0  ddiv.o ABSOLUTE
    ../fplib/microlib/fpepilogue.c           0x00000000   Number         0  depilogue.o ABSOLUTE
    ../fplib/microlib/fpfix.c                0x00000000   Number         0  dfixul.o ABSOLUTE
    ../fplib/microlib/fpmul.c                0x00000000   Number         0  dmul.o ABSOLUTE
    ..\Core\Src\main.c                       0x00000000   Number         0  main.o ABSOLUTE
    ..\Core\Src\stm32f1xx_hal_msp.c          0x00000000   Number         0  stm32f1xx_hal_msp.o ABSOLUTE
    ..\Core\Src\stm32f1xx_it.c               0x00000000   Number         0  stm32f1xx_it.o ABSOLUTE
    ..\Core\Src\system_stm32f1xx.c           0x00000000   Number         0  system_stm32f1xx.o ABSOLUTE
    ..\Drivers\STM32F1xx_HAL_Driver\Src\stm32f1xx_hal.c 0x00000000   Number         0  stm32f1xx_hal.o ABSOLUTE
    ..\Drivers\STM32F1xx_HAL_Driver\Src\stm32f1xx_hal_cortex.c 0x00000000   Number         0  stm32f1xx_hal_cortex.o ABSOLUTE
    ..\Drivers\STM32F1xx_HAL_Driver\Src\stm32f1xx_hal_dma.c 0x00000000   Number         0  stm32f1xx_hal_dma.o ABSOLUTE
    ..\Drivers\STM32F1xx_HAL_Driver\Src\stm32f1xx_hal_exti.c 0x00000000   Number         0  stm32f1xx_hal_exti.o ABSOLUTE
    ..\Drivers\STM32F1xx_HAL_Driver\Src\stm32f1xx_hal_flash.c 0x00000000   Number         0  stm32f1xx_hal_flash.o ABSOLUTE
    ..\Drivers\STM32F1xx_HAL_Driver\Src\stm32f1xx_hal_flash_ex.c 0x00000000   Number         0  stm32f1xx_hal_flash_ex.o ABSOLUTE
    ..\Drivers\STM32F1xx_HAL_Driver\Src\stm32f1xx_hal_gpio.c 0x00000000   Number         0  stm32f1xx_hal_gpio.o ABSOLUTE
    ..\Drivers\STM32F1xx_HAL_Driver\Src\stm32f1xx_hal_gpio_ex.c 0x00000000   Number         0  stm32f1xx_hal_gpio_ex.o ABSOLUTE
    ..\Drivers\STM32F1xx_HAL_Driver\Src\stm32f1xx_hal_pwr.c 0x00000000   Number         0  stm32f1xx_hal_pwr.o ABSOLUTE
    ..\Drivers\STM32F1xx_HAL_Driver\Src\stm32f1xx_hal_rcc.c 0x00000000   Number         0  stm32f1xx_hal_rcc.o ABSOLUTE
    ..\Drivers\STM32F1xx_HAL_Driver\Src\stm32f1xx_hal_rcc_ex.c 0x00000000   Number         0  stm32f1xx_hal_rcc_ex.o ABSOLUTE
    ..\Drivers\STM32F1xx_HAL_Driver\Src\stm32f1xx_hal_tim.c 0x00000000   Number         0  stm32f1xx_hal_tim.o ABSOLUTE
    ..\Drivers\STM32F1xx_HAL_Driver\Src\stm32f1xx_hal_tim_ex.c 0x00000000   Number         0  stm32f1xx_hal_tim_ex.o ABSOLUTE
    ..\Drivers\STM32F1xx_HAL_Driver\Src\stm32f1xx_hal_uart.c 0x00000000   Number         0  stm32f1xx_hal_uart.o ABSOLUTE
    ..\HAL_CM.c                              0x00000000   Number         0  hal_cm.o ABSOLUTE
    ..\\rt_CMSIS.c                           0x00000000   Number         0  rt_cmsis.o ABSOLUTE
    ..\\rt_System.c                          0x00000000   Number         0  rt_system.o ABSOLUTE
    ..\\src\\DHT\\dht11.c                    0x00000000   Number         0  dht11.o ABSOLUTE
    ..\\src\\app.c                           0x00000000   Number         0  app.o ABSOLUTE
    ..\\src\\bsp.c                           0x00000000   Number         0  bsp.o ABSOLUTE
    ..\\src\\esp8266\\esp8266.c              0x00000000   Number         0  esp8266.o ABSOLUTE
    ..\\src\\mem\\tlsf.c                     0x00000000   Number         0  tlsf.o ABSOLUTE
    ..\\src\\uart_interface.c                0x00000000   Number         0  uart_interface.o ABSOLUTE
    ..\\src\\vkey.c                          0x00000000   Number         0  vkey.o ABSOLUTE
    ..\easylogger\port\elog_port.c           0x00000000   Number         0  elog_port.o ABSOLUTE
    ..\easylogger\src\elog.c                 0x00000000   Number         0  elog.o ABSOLUTE
    ..\easylogger\src\elog_async.c           0x00000000   Number         0  elog_async.o ABSOLUTE
    ..\easylogger\src\elog_buf.c             0x00000000   Number         0  elog_buf.o ABSOLUTE
    ..\easylogger\src\elog_utils.c           0x00000000   Number         0  elog_utils.o ABSOLUTE
    ..\rt_CMSIS.c                            0x00000000   Number         0  rt_cmsis.o ABSOLUTE
    ..\rt_Event.c                            0x00000000   Number         0  rt_event.o ABSOLUTE
    ..\rt_List.c                             0x00000000   Number         0  rt_list.o ABSOLUTE
    ..\rt_Mailbox.c                          0x00000000   Number         0  rt_mailbox.o ABSOLUTE
    ..\rt_MemBox.c                           0x00000000   Number         0  rt_membox.o ABSOLUTE
    ..\rt_Memory.c                           0x00000000   Number         0  rt_memory.o ABSOLUTE
    ..\rt_Mutex.c                            0x00000000   Number         0  rt_mutex.o ABSOLUTE
    ..\rt_Robin.c                            0x00000000   Number         0  rt_robin.o ABSOLUTE
    ..\rt_Semaphore.c                        0x00000000   Number         0  rt_semaphore.o ABSOLUTE
    ..\rt_System.c                           0x00000000   Number         0  rt_system.o ABSOLUTE
    ..\rt_Task.c                             0x00000000   Number         0  rt_task.o ABSOLUTE
    ..\rt_Time.c                             0x00000000   Number         0  rt_time.o ABSOLUTE
    ..\src\DHT\dht11.c                       0x00000000   Number         0  dht11.o ABSOLUTE
    ..\src\app.c                             0x00000000   Number         0  app.o ABSOLUTE
    ..\src\bsp.c                             0x00000000   Number         0  bsp.o ABSOLUTE
    ..\src\esp8266\esp8266.c                 0x00000000   Number         0  esp8266.o ABSOLUTE
    ..\src\mem\tlsf.c                        0x00000000   Number         0  tlsf.o ABSOLUTE
    ..\src\os_port.c                         0x00000000   Number         0  os_port.o ABSOLUTE
    ..\src\uart_interface.c                  0x00000000   Number         0  uart_interface.o ABSOLUTE
    ..\src\vchannel.c                        0x00000000   Number         0  vchannel.o ABSOLUTE
    ..\src\vkey.c                            0x00000000   Number         0  vkey.o ABSOLUTE
    ..\src\vlist.c                           0x00000000   Number         0  vlist.o ABSOLUTE
    ..\src\vmsgexec.c                        0x00000000   Number         0  vmsgexec.o ABSOLUTE
    HAL_CM3.c                                0x00000000   Number         0  hal_cm3.o ABSOLUTE
    HAL_CM3.c                                0x00000000   Number         0  hal_cm3.o ABSOLUTE
    RTE\CMSIS\RTX_Conf_CM.c                  0x00000000   Number         0  rtx_conf_cm.o ABSOLUTE
    SVC_Table.s                              0x00000000   Number         0  svc_table.o ABSOLUTE
    cdrcmple.s                               0x00000000   Number         0  cdrcmple.o ABSOLUTE
    dc.s                                     0x00000000   Number         0  dc.o ABSOLUTE
    handlers.s                               0x00000000   Number         0  handlers.o ABSOLUTE
    init.s                                   0x00000000   Number         0  init.o ABSOLUTE
    startup_stm32f103xe.s                    0x00000000   Number         0  startup_stm32f103xe.o ABSOLUTE
    RESET                                    0x08000000   Section      304  startup_stm32f103xe.o(RESET)
    .ARM.Collect$$$$00000000                 0x08000130   Section        0  entry.o(.ARM.Collect$$$$00000000)
    .ARM.Collect$$$$00000001                 0x08000130   Section        4  entry2.o(.ARM.Collect$$$$00000001)
    .ARM.Collect$$$$00000004                 0x08000134   Section        4  entry5.o(.ARM.Collect$$$$00000004)
    .ARM.Collect$$$$00000008                 0x08000138   Section        0  entry7b.o(.ARM.Collect$$$$00000008)
    .ARM.Collect$$$$0000000A                 0x08000138   Section        0  entry8b.o(.ARM.Collect$$$$0000000A)
    .ARM.Collect$$$$0000000E                 0x08000138   Section        4  entry12b.o(.ARM.Collect$$$$0000000E)
    .ARM.Collect$$$$0000000F                 0x0800013c   Section        0  entry10a.o(.ARM.Collect$$$$0000000F)
    .ARM.Collect$$$$00000011                 0x0800013c   Section        0  entry11a.o(.ARM.Collect$$$$00000011)
    .ARM.Collect$$$$000000FF                 0x0800013c   Section        0  rtx_conf_cm.o(.ARM.Collect$$$$000000FF)
    .ARM.Collect$$$$00002712                 0x08000154   Section        4  entry2.o(.ARM.Collect$$$$00002712)
    __lit__00000000                          0x08000154   Data           4  entry2.o(.ARM.Collect$$$$00002712)
    .emb_text                                0x08000158   Section      304  hal_cm3.o(.emb_text)
    .text                                    0x08000288   Section       36  startup_stm32f103xe.o(.text)
    .text                                    0x080002ac   Section        0  uldiv.o(.text)
    .text                                    0x0800030e   Section        0  llushr.o(.text)
    .text                                    0x0800032e   Section        0  memseta.o(.text)
    .text                                    0x08000352   Section        0  strstr.o(.text)
    .text                                    0x08000376   Section        0  strlen.o(.text)
    .text                                    0x08000384   Section        0  strncmp.o(.text)
    .text                                    0x080003a2   Section        0  uidiv.o(.text)
    .text                                    0x080003ce   Section        0  llshl.o(.text)
    .text                                    0x080003ec   Section        0  dadd.o(.text)
    .text                                    0x080003ec   Section        0  iusefp.o(.text)
    .text                                    0x0800053a   Section        0  dmul.o(.text)
    .text                                    0x0800061e   Section        0  ddiv.o(.text)
    .text                                    0x080006fc   Section        0  dfixul.o(.text)
    .text                                    0x0800072c   Section       48  cdrcmple.o(.text)
    .text                                    0x0800075c   Section       36  init.o(.text)
    .text                                    0x08000780   Section        0  llsshr.o(.text)
    .text                                    0x080007a4   Section        0  depilogue.o(.text)
    SVC_TABLE                                0x08000860   Section        4  svc_table.o(SVC_TABLE)
    i.BusFault_Handler                       0x08000864   Section        0  stm32f1xx_it.o(i.BusFault_Handler)
    i.DHT11_Check                            0x08000868   Section        0  dht11.o(i.DHT11_Check)
    i.DHT11_IO_IN                            0x080008c4   Section        0  dht11.o(i.DHT11_IO_IN)
    i.DHT11_IO_OUT                           0x080008e4   Section        0  dht11.o(i.DHT11_IO_OUT)
    i.DHT11_RST                              0x0800091c   Section        0  dht11.o(i.DHT11_RST)
    i.DHT11_Read_Bit                         0x08000950   Section        0  dht11.o(i.DHT11_Read_Bit)
    i.DHT11_Read_Byte                        0x080009a8   Section        0  dht11.o(i.DHT11_Read_Byte)
    i.DHT11_Read_Data                        0x080009c2   Section        0  dht11.o(i.DHT11_Read_Data)
    i.DebugMon_Handler                       0x08000a12   Section        0  stm32f1xx_it.o(i.DebugMon_Handler)
    i.Delay_us                               0x08000a14   Section        0  dht11.o(i.Delay_us)
    i.HAL_DMA_Abort                          0x08000a3c   Section        0  stm32f1xx_hal_dma.o(i.HAL_DMA_Abort)
    i.HAL_DMA_Abort_IT                       0x08000a84   Section        0  stm32f1xx_hal_dma.o(i.HAL_DMA_Abort_IT)
    i.HAL_Delay                              0x08000bb4   Section        0  stm32f1xx_hal.o(i.HAL_Delay)
    i.HAL_GPIO_Init                          0x08000bd8   Section        0  stm32f1xx_hal_gpio.o(i.HAL_GPIO_Init)
    i.HAL_GPIO_ReadPin                       0x08000dd0   Section        0  stm32f1xx_hal_gpio.o(i.HAL_GPIO_ReadPin)
    i.HAL_GPIO_TogglePin                     0x08000dda   Section        0  stm32f1xx_hal_gpio.o(i.HAL_GPIO_TogglePin)
    i.HAL_GPIO_WritePin                      0x08000dea   Section        0  stm32f1xx_hal_gpio.o(i.HAL_GPIO_WritePin)
    i.HAL_GetTick                            0x08000df4   Section        0  os_port.o(i.HAL_GetTick)
    i.HAL_Init                               0x08000e00   Section        0  stm32f1xx_hal.o(i.HAL_Init)
    i.HAL_InitTick                           0x08000e24   Section        0  stm32f1xx_hal.o(i.HAL_InitTick)
    i.HAL_MspInit                            0x08000e64   Section        0  stm32f1xx_hal_msp.o(i.HAL_MspInit)
    i.HAL_NVIC_EnableIRQ                     0x08000eac   Section        0  stm32f1xx_hal_cortex.o(i.HAL_NVIC_EnableIRQ)
    i.HAL_NVIC_SetPriority                   0x08000ec8   Section        0  stm32f1xx_hal_cortex.o(i.HAL_NVIC_SetPriority)
    i.HAL_NVIC_SetPriorityGrouping           0x08000f08   Section        0  stm32f1xx_hal_cortex.o(i.HAL_NVIC_SetPriorityGrouping)
    i.HAL_RCC_ClockConfig                    0x08000f2c   Section        0  stm32f1xx_hal_rcc.o(i.HAL_RCC_ClockConfig)
    i.HAL_RCC_GetPCLK1Freq                   0x08001058   Section        0  stm32f1xx_hal_rcc.o(i.HAL_RCC_GetPCLK1Freq)
    i.HAL_RCC_GetPCLK2Freq                   0x08001078   Section        0  stm32f1xx_hal_rcc.o(i.HAL_RCC_GetPCLK2Freq)
    i.HAL_RCC_GetSysClockFreq                0x08001098   Section        0  stm32f1xx_hal_rcc.o(i.HAL_RCC_GetSysClockFreq)
    i.HAL_RCC_OscConfig                      0x080010e4   Section        0  stm32f1xx_hal_rcc.o(i.HAL_RCC_OscConfig)
    i.HAL_SYSTICK_Config                     0x08001404   Section        0  stm32f1xx_hal_cortex.o(i.HAL_SYSTICK_Config)
    i.HAL_TIMEx_MasterConfigSynchronization  0x0800142c   Section        0  stm32f1xx_hal_tim_ex.o(i.HAL_TIMEx_MasterConfigSynchronization)
    i.HAL_TIM_Base_Init                      0x080014a8   Section        0  stm32f1xx_hal_tim.o(i.HAL_TIM_Base_Init)
    i.HAL_TIM_Base_MspInit                   0x08001504   Section        0  stm32f1xx_hal_msp.o(i.HAL_TIM_Base_MspInit)
    i.HAL_TIM_Base_Start                     0x0800152c   Section        0  stm32f1xx_hal_tim.o(i.HAL_TIM_Base_Start)
    i.HAL_TIM_Base_Stop                      0x08001590   Section        0  stm32f1xx_hal_tim.o(i.HAL_TIM_Base_Stop)
    i.HAL_TIM_ConfigClockSource              0x080015b6   Section        0  stm32f1xx_hal_tim.o(i.HAL_TIM_ConfigClockSource)
    i.HAL_UARTEx_RxEventCallback             0x08001692   Section        0  stm32f1xx_hal_uart.o(i.HAL_UARTEx_RxEventCallback)
    i.HAL_UART_ErrorCallback                 0x08001694   Section        0  stm32f1xx_hal_uart.o(i.HAL_UART_ErrorCallback)
    i.HAL_UART_IRQHandler                    0x08001698   Section        0  stm32f1xx_hal_uart.o(i.HAL_UART_IRQHandler)
    i.HAL_UART_Init                          0x08001904   Section        0  stm32f1xx_hal_uart.o(i.HAL_UART_Init)
    i.HAL_UART_MspInit                       0x08001968   Section        0  stm32f1xx_hal_msp.o(i.HAL_UART_MspInit)
    i.HAL_UART_RxCpltCallback                0x08001a44   Section        0  stm32f1xx_hal_uart.o(i.HAL_UART_RxCpltCallback)
    i.HAL_UART_Transmit                      0x08001a46   Section        0  stm32f1xx_hal_uart.o(i.HAL_UART_Transmit)
    i.HAL_UART_TxCpltCallback                0x08001ae0   Section        0  stm32f1xx_hal_uart.o(i.HAL_UART_TxCpltCallback)
    i.HardFault_Handler                      0x08001ae2   Section        0  stm32f1xx_it.o(i.HardFault_Handler)
    i.MAPPING_INSERT                         0x08001ae4   Section        0  tlsf.o(i.MAPPING_INSERT)
    MAPPING_INSERT                           0x08001ae5   Thumb Code    44  tlsf.o(i.MAPPING_INSERT)
    i.MX_GPIO_Init                           0x08001b10   Section        0  main.o(i.MX_GPIO_Init)
    MX_GPIO_Init                             0x08001b11   Thumb Code   152  main.o(i.MX_GPIO_Init)
    i.MX_TIM4_Init                           0x08001bb8   Section        0  main.o(i.MX_TIM4_Init)
    MX_TIM4_Init                             0x08001bb9   Thumb Code    94  main.o(i.MX_TIM4_Init)
    i.MemManage_Handler                      0x08001c20   Section        0  stm32f1xx_it.o(i.MemManage_Handler)
    i.NMI_Handler                            0x08001c22   Section        0  stm32f1xx_it.o(i.NMI_Handler)
    i.SystemClock_Config                     0x08001c24   Section        0  main.o(i.SystemClock_Config)
    i.SystemInit                             0x08001c82   Section        0  system_stm32f1xx.o(i.SystemInit)
    i.TIM_Base_SetConfig                     0x08001c84   Section        0  stm32f1xx_hal_tim.o(i.TIM_Base_SetConfig)
    i.TIM_ETR_SetConfig                      0x08001d10   Section        0  stm32f1xx_hal_tim.o(i.TIM_ETR_SetConfig)
    i.TIM_ITRx_SetConfig                     0x08001d24   Section        0  stm32f1xx_hal_tim.o(i.TIM_ITRx_SetConfig)
    TIM_ITRx_SetConfig                       0x08001d25   Thumb Code    16  stm32f1xx_hal_tim.o(i.TIM_ITRx_SetConfig)
    i.TIM_TI1_ConfigInputStage               0x08001d34   Section        0  stm32f1xx_hal_tim.o(i.TIM_TI1_ConfigInputStage)
    TIM_TI1_ConfigInputStage                 0x08001d35   Thumb Code    34  stm32f1xx_hal_tim.o(i.TIM_TI1_ConfigInputStage)
    i.TIM_TI2_ConfigInputStage               0x08001d56   Section        0  stm32f1xx_hal_tim.o(i.TIM_TI2_ConfigInputStage)
    TIM_TI2_ConfigInputStage                 0x08001d57   Thumb Code    36  stm32f1xx_hal_tim.o(i.TIM_TI2_ConfigInputStage)
    i.UART_DMAAbortOnError                   0x08001d7a   Section        0  stm32f1xx_hal_uart.o(i.UART_DMAAbortOnError)
    UART_DMAAbortOnError                     0x08001d7b   Thumb Code    16  stm32f1xx_hal_uart.o(i.UART_DMAAbortOnError)
    i.UART_EndRxTransfer                     0x08001d8a   Section        0  stm32f1xx_hal_uart.o(i.UART_EndRxTransfer)
    UART_EndRxTransfer                       0x08001d8b   Thumb Code    78  stm32f1xx_hal_uart.o(i.UART_EndRxTransfer)
    i.UART_Receive_IT                        0x08001dd8   Section        0  stm32f1xx_hal_uart.o(i.UART_Receive_IT)
    UART_Receive_IT                          0x08001dd9   Thumb Code   194  stm32f1xx_hal_uart.o(i.UART_Receive_IT)
    i.UART_SetConfig                         0x08001e9c   Section        0  stm32f1xx_hal_uart.o(i.UART_SetConfig)
    UART_SetConfig                           0x08001e9d   Thumb Code   178  stm32f1xx_hal_uart.o(i.UART_SetConfig)
    i.UART_WaitOnFlagUntilTimeout            0x08001f54   Section        0  stm32f1xx_hal_uart.o(i.UART_WaitOnFlagUntilTimeout)
    UART_WaitOnFlagUntilTimeout              0x08001f55   Thumb Code   120  stm32f1xx_hal_uart.o(i.UART_WaitOnFlagUntilTimeout)
    i.USART1_IRQHandler                      0x08001fcc   Section        0  stm32f1xx_it.o(i.USART1_IRQHandler)
    i.USART3_IRQHandler                      0x08001fd8   Section        0  stm32f1xx_it.o(i.USART3_IRQHandler)
    i.UsageFault_Handler                     0x08001fe4   Section        0  stm32f1xx_it.o(i.UsageFault_Handler)
    i.__0printf                              0x08001fe8   Section        0  printfa.o(i.__0printf)
    i.__0snprintf                            0x08002008   Section        0  printfa.o(i.__0snprintf)
    i.__0vsnprintf                           0x0800203c   Section        0  printfa.o(i.__0vsnprintf)
    i.__NVIC_SetPriority                     0x08002070   Section        0  stm32f1xx_hal_cortex.o(i.__NVIC_SetPriority)
    __NVIC_SetPriority                       0x08002071   Thumb Code    32  stm32f1xx_hal_cortex.o(i.__NVIC_SetPriority)
    i.__scatterload_copy                     0x08002090   Section       14  handlers.o(i.__scatterload_copy)
    i.__scatterload_null                     0x0800209e   Section        2  handlers.o(i.__scatterload_null)
    i.__scatterload_zeroinit                 0x080020a0   Section       14  handlers.o(i.__scatterload_zeroinit)
    i._fp_digits                             0x080020b0   Section        0  printfa.o(i._fp_digits)
    _fp_digits                               0x080020b1   Thumb Code   366  printfa.o(i._fp_digits)
    i._init_box                              0x08002234   Section        0  rt_membox.o(i._init_box)
    i._printf_core                           0x0800227c   Section        0  printfa.o(i._printf_core)
    _printf_core                             0x0800227d   Thumb Code  1704  printfa.o(i._printf_core)
    i._printf_post_padding                   0x08002930   Section        0  printfa.o(i._printf_post_padding)
    _printf_post_padding                     0x08002931   Thumb Code    36  printfa.o(i._printf_post_padding)
    i._printf_pre_padding                    0x08002954   Section        0  printfa.o(i._printf_pre_padding)
    _printf_pre_padding                      0x08002955   Thumb Code    46  printfa.o(i._printf_pre_padding)
    i._snputc                                0x08002982   Section        0  printfa.o(i._snputc)
    _snputc                                  0x08002983   Thumb Code    22  printfa.o(i._snputc)
    i.app_dlgcallback                        0x08002998   Section        0  app.o(i.app_dlgcallback)
    i.app_init                               0x08002bb0   Section        0  app.o(i.app_init)
    i.clear_bit                              0x08002c74   Section        0  tlsf.o(i.clear_bit)
    clear_bit                                0x08002c75   Thumb Code    24  tlsf.o(i.clear_bit)
    i.dbg_init                               0x08002c8c   Section        0  hal_cm.o(i.dbg_init)
    i.dbg_task_notify                        0x08002cbc   Section        0  hal_cm.o(i.dbg_task_notify)
    i.dbg_task_switch                        0x08002cdc   Section        0  hal_cm.o(i.dbg_task_switch)
    i.dm_init                                0x08002cec   Section        0  tlsf.o(i.dm_init)
    i.elog_get_filter_tag_lvl                0x08002cfc   Section        0  elog.o(i.elog_get_filter_tag_lvl)
    i.elog_init                              0x08002de8   Section        0  elog.o(i.elog_init)
    i.elog_output                            0x08002e50   Section        0  elog.o(i.elog_output)
    i.elog_output_lock                       0x080031c0   Section        0  elog.o(i.elog_output_lock)
    i.elog_output_lock_enabled               0x080031e0   Section        0  elog.o(i.elog_output_lock_enabled)
    i.elog_output_unlock                     0x0800320c   Section        0  elog.o(i.elog_output_unlock)
    i.elog_port_get_p_info                   0x0800322c   Section        0  elog_port.o(i.elog_port_get_p_info)
    i.elog_port_get_t_info                   0x08003234   Section        0  elog_port.o(i.elog_port_get_t_info)
    i.elog_port_get_time                     0x0800323c   Section        0  elog_port.o(i.elog_port_get_time)
    i.elog_port_init                         0x0800323e   Section        0  elog_port.o(i.elog_port_init)
    i.elog_port_output                       0x08003244   Section        0  elog_port.o(i.elog_port_output)
    i.elog_port_output_lock                  0x08003254   Section        0  elog_port.o(i.elog_port_output_lock)
    i.elog_port_output_unlock                0x08003256   Section        0  elog_port.o(i.elog_port_output_unlock)
    i.elog_set_filter_lvl                    0x08003258   Section        0  elog.o(i.elog_set_filter_lvl)
    i.elog_set_fmt                           0x08003308   Section        0  elog.o(i.elog_set_fmt)
    i.elog_start                             0x080033c0   Section        0  elog.o(i.elog_start)
    i.elog_strcpy                            0x08003448   Section        0  elog_utils.o(i.elog_strcpy)
    i.fputc                                  0x08003538   Section        0  main.o(i.fputc)
    i.free_ex                                0x08003550   Section        0  tlsf.o(i.free_ex)
    i.get_fmt_enabled                        0x080036d0   Section        0  elog.o(i.get_fmt_enabled)
    get_fmt_enabled                          0x080036d1   Thumb Code    78  elog.o(i.get_fmt_enabled)
    i.init_memory_pool                       0x08003790   Section        0  tlsf.o(i.init_memory_pool)
    i.isrMessageGet                          0x08003898   Section        0  rt_cmsis.o(i.isrMessageGet)
    i.isrMessagePut                          0x080038c2   Section        0  rt_cmsis.o(i.isrMessagePut)
    i.isr_mbx_receive                        0x080038f0   Section        0  rt_mailbox.o(i.isr_mbx_receive)
    i.isr_mbx_send                           0x08003946   Section        0  rt_mailbox.o(i.isr_mbx_send)
    i.key_scan__getkeystate                  0x08003954   Section        0  vkey.o(i.key_scan__getkeystate)
    i.key_scan__init                         0x0800396c   Section        0  vkey.o(i.key_scan__init)
    i.key_scan__scan                         0x080039e0   Section        0  vkey.o(i.key_scan__scan)
    i.ls_bit                                 0x08003a38   Section        0  tlsf.o(i.ls_bit)
    ls_bit                                   0x08003a39   Thumb Code    46  tlsf.o(i.ls_bit)
    i.main                                   0x08003a6c   Section        0  main.o(i.main)
    i.malloc_ex                              0x08003b74   Section        0  tlsf.o(i.malloc_ex)
    i.ms_bit                                 0x08003cf4   Section        0  tlsf.o(i.ms_bit)
    ms_bit                                   0x08003cf5   Thumb Code    42  tlsf.o(i.ms_bit)
    i.msgexec_alloc_message                  0x08003d24   Section        0  vmsgexec.o(i.msgexec_alloc_message)
    i.msgexec_create_module                  0x08003d34   Section        0  vmsgexec.o(i.msgexec_create_module)
    i.msgexec_exec                           0x08003d90   Section        0  vmsgexec.o(i.msgexec_exec)
    i.msgexec_free_module                    0x08003dd0   Section        0  vmsgexec.o(i.msgexec_free_module)
    i.msgexec_init                           0x08003e2c   Section        0  vmsgexec.o(i.msgexec_init)
    i.msgexec_put_message                    0x08003e4c   Section        0  vmsgexec.o(i.msgexec_put_message)
    i.osKernelInitialize                     0x08003e60   Section        0  rt_cmsis.o(i.osKernelInitialize)
    i.osKernelStart                          0x08003e84   Section        0  rt_cmsis.o(i.osKernelStart)
    i.osMailCAlloc                           0x08003ef0   Section        0  rt_cmsis.o(i.osMailCAlloc)
    i.osMailCreate                           0x08003f20   Section        0  rt_cmsis.o(i.osMailCreate)
    i.osMailFree                             0x08003f4c   Section        0  rt_cmsis.o(i.osMailFree)
    i.osMailGet                              0x08003f68   Section        0  rt_cmsis.o(i.osMailGet)
    i.osMailPut                              0x08003f7e   Section        0  rt_cmsis.o(i.osMailPut)
    i.osMessageGet                           0x08003f94   Section        0  rt_cmsis.o(i.osMessageGet)
    i.osMessagePut                           0x08003fac   Section        0  rt_cmsis.o(i.osMessagePut)
    i.osMutexCreate                          0x08003fc4   Section        0  rt_cmsis.o(i.osMutexCreate)
    i.osMutexRelease                         0x08003ff0   Section        0  rt_cmsis.o(i.osMutexRelease)
    i.osMutexWait                            0x08004008   Section        0  rt_cmsis.o(i.osMutexWait)
    i.osThreadCreate                         0x08004020   Section        0  rt_cmsis.o(i.osThreadCreate)
    i.osThreadExit                           0x0800404c   Section        0  rt_cmsis.o(i.osThreadExit)
    i.osTimerCall                            0x08004064   Section        0  rt_cmsis.o(i.osTimerCall)
    i.osTimerCreate                          0x08004070   Section        0  rt_cmsis.o(i.osTimerCreate)
    i.osTimerDelete                          0x0800409c   Section        0  rt_cmsis.o(i.osTimerDelete)
    i.osTimerStart                           0x080040b4   Section        0  rt_cmsis.o(i.osTimerStart)
    i.osTimerThread                          0x080040cc   Section        0  rt_cmsis.o(i.osTimerThread)
    i.os_error                               0x080040f8   Section        0  rtx_conf_cm.o(i.os_error)
    i.os_idle_demon                          0x080040fa   Section        0  rtx_conf_cm.o(i.os_idle_demon)
    i.os_tick_init                           0x080040fc   Section        0  rt_system.o(i.os_tick_init)
    i.os_tick_irqack                         0x08004124   Section        0  rt_system.o(i.os_tick_irqack)
    i.ostimer_callback                       0x08004126   Section        0  vmsgexec.o(i.ostimer_callback)
    i.process_area                           0x08004154   Section        0  tlsf.o(i.process_area)
    process_area                             0x08004155   Thumb Code    44  tlsf.o(i.process_area)
    i.rt_alloc_box                           0x08004180   Section        0  rt_membox.o(i.rt_alloc_box)
    i.rt_alloc_mem                           0x0800419a   Section        0  rt_memory.o(i.rt_alloc_mem)
    i.rt_block                               0x080041d8   Section        0  rt_task.o(i.rt_block)
    i.rt_chk_robin                           0x08004210   Section        0  rt_robin.o(i.rt_chk_robin)
    i.rt_clr_box                             0x08004258   Section        0  rt_cmsis.o(i.rt_clr_box)
    rt_clr_box                               0x08004259   Thumb Code    24  rt_cmsis.o(i.rt_clr_box)
    i.rt_dec_dly                             0x08004270   Section        0  rt_list.o(i.rt_dec_dly)
    i.rt_dispatch                            0x080042e0   Section        0  rt_task.o(i.rt_dispatch)
    i.rt_evt_psh                             0x08004324   Section        0  rt_event.o(i.rt_evt_psh)
    i.rt_free_box                            0x08004374   Section        0  rt_membox.o(i.rt_free_box)
    i.rt_free_mem                            0x080043a0   Section        0  rt_memory.o(i.rt_free_mem)
    i.rt_get_first                           0x080043c8   Section        0  rt_list.o(i.rt_get_first)
    i.rt_id2obj                              0x080043f0   Section        0  rt_cmsis.o(i.rt_id2obj)
    rt_id2obj                                0x080043f1   Thumb Code     8  rt_cmsis.o(i.rt_id2obj)
    i.rt_init_context                        0x080043f8   Section        0  rt_task.o(i.rt_init_context)
    rt_init_context                          0x080043f9   Thumb Code    66  rt_task.o(i.rt_init_context)
    i.rt_init_mem                            0x08004440   Section        0  rt_memory.o(i.rt_init_mem)
    i.rt_init_robin                          0x0800445c   Section        0  rt_robin.o(i.rt_init_robin)
    i.rt_init_stack                          0x08004474   Section        0  hal_cm.o(i.rt_init_stack)
    i.rt_mbx_check                           0x080044f4   Section        0  rt_mailbox.o(i.rt_mbx_check)
    i.rt_mbx_init                            0x080044fc   Section        0  rt_mailbox.o(i.rt_mbx_init)
    i.rt_mbx_psh                             0x08004518   Section        0  rt_mailbox.o(i.rt_mbx_psh)
    i.rt_mbx_send                            0x08004608   Section        0  rt_mailbox.o(i.rt_mbx_send)
    i.rt_mbx_wait                            0x080046a0   Section        0  rt_mailbox.o(i.rt_mbx_wait)
    i.rt_ms2tick                             0x08004754   Section        0  rt_cmsis.o(i.rt_ms2tick)
    rt_ms2tick                               0x08004755   Thumb Code    58  rt_cmsis.o(i.rt_ms2tick)
    i.rt_mut_init                            0x08004798   Section        0  rt_mutex.o(i.rt_mut_init)
    i.rt_mut_release                         0x080047a8   Section        0  rt_mutex.o(i.rt_mut_release)
    i.rt_mut_wait                            0x08004880   Section        0  rt_mutex.o(i.rt_mut_wait)
    i.rt_pop_req                             0x080048f8   Section        0  rt_system.o(i.rt_pop_req)
    i.rt_psh_req                             0x08004974   Section        0  rt_system.o(i.rt_psh_req)
    i.rt_psq_enq                             0x08004994   Section        0  rt_list.o(i.rt_psq_enq)
    i.rt_put_dly                             0x080049f0   Section        0  rt_list.o(i.rt_put_dly)
    i.rt_put_prio                            0x08004a38   Section        0  rt_list.o(i.rt_put_prio)
    i.rt_put_rdy_first                       0x08004a70   Section        0  rt_list.o(i.rt_put_rdy_first)
    i.rt_resort_prio                         0x08004a84   Section        0  rt_list.o(i.rt_resort_prio)
    i.rt_ret_val                             0x08004ab8   Section        0  hal_cm.o(i.rt_ret_val)
    i.rt_ret_val2                            0x08004abe   Section        0  hal_cm.o(i.rt_ret_val2)
    i.rt_rmv_dly                             0x08004ac6   Section        0  rt_list.o(i.rt_rmv_dly)
    i.rt_rmv_list                            0x08004af0   Section        0  rt_list.o(i.rt_rmv_list)
    i.rt_sem_psh                             0x08004b20   Section        0  rt_semaphore.o(i.rt_sem_psh)
    i.rt_stk_check                           0x08004b54   Section        0  rt_system.o(i.rt_stk_check)
    i.rt_switch_req                          0x08004b78   Section        0  rt_task.o(i.rt_switch_req)
    i.rt_sys_init                            0x08004ba0   Section        0  rt_task.o(i.rt_sys_init)
    i.rt_sys_start                           0x08004c6c   Section        0  rt_task.o(i.rt_sys_start)
    i.rt_systick                             0x08004ce4   Section        0  rt_system.o(i.rt_systick)
    i.rt_tid2ptcb                            0x08004d24   Section        0  rt_cmsis.o(i.rt_tid2ptcb)
    rt_tid2ptcb                              0x08004d25   Thumb Code    18  rt_cmsis.o(i.rt_tid2ptcb)
    i.rt_timer_insert                        0x08004d38   Section        0  rt_cmsis.o(i.rt_timer_insert)
    rt_timer_insert                          0x08004d39   Thumb Code    48  rt_cmsis.o(i.rt_timer_insert)
    i.rt_timer_remove                        0x08004d6c   Section        0  rt_cmsis.o(i.rt_timer_remove)
    rt_timer_remove                          0x08004d6d   Thumb Code    56  rt_cmsis.o(i.rt_timer_remove)
    i.rt_tsk_create                          0x08004da8   Section        0  rt_task.o(i.rt_tsk_create)
    i.rt_tsk_delete                          0x08004e30   Section        0  rt_task.o(i.rt_tsk_delete)
    i.rt_tsk_prio                            0x08004fac   Section        0  rt_task.o(i.rt_tsk_prio)
    i.rt_tsk_self                            0x08005028   Section        0  rt_task.o(i.rt_tsk_self)
    i.set_bit                                0x08005038   Section        0  tlsf.o(i.set_bit)
    set_bit                                  0x08005039   Thumb Code    24  tlsf.o(i.set_bit)
    i.svcKernelInitialize                    0x08005050   Section        0  rt_cmsis.o(i.svcKernelInitialize)
    i.svcKernelStart                         0x080050c0   Section        0  rt_cmsis.o(i.svcKernelStart)
    i.svcMailCreate                          0x08005108   Section        0  rt_cmsis.o(i.svcMailCreate)
    i.svcMessageCreate                       0x0800514a   Section        0  rt_cmsis.o(i.svcMessageCreate)
    i.svcMessageGet                          0x0800516e   Section        0  rt_cmsis.o(i.svcMessageGet)
    i.svcMessagePut                          0x080051a8   Section        0  rt_cmsis.o(i.svcMessagePut)
    i.svcMutexCreate                         0x080051de   Section        0  rt_cmsis.o(i.svcMutexCreate)
    i.svcMutexRelease                        0x080051fa   Section        0  rt_cmsis.o(i.svcMutexRelease)
    i.svcMutexWait                           0x0800521c   Section        0  rt_cmsis.o(i.svcMutexWait)
    i.svcThreadCreate                        0x08005258   Section        0  rt_cmsis.o(i.svcThreadCreate)
    i.svcThreadGetId                         0x080052c4   Section        0  rt_cmsis.o(i.svcThreadGetId)
    i.svcThreadTerminate                     0x080052e0   Section        0  rt_cmsis.o(i.svcThreadTerminate)
    i.svcTimerCall                           0x08005318   Section        0  rt_cmsis.o(i.svcTimerCall)
    i.svcTimerCreate                         0x08005330   Section        0  rt_cmsis.o(i.svcTimerCreate)
    i.svcTimerDelete                         0x08005368   Section        0  rt_cmsis.o(i.svcTimerDelete)
    i.svcTimerStart                          0x08005390   Section        0  rt_cmsis.o(i.svcTimerStart)
    i.sysMailAlloc                           0x080053f4   Section        0  rt_cmsis.o(i.sysMailAlloc)
    i.sysMailFree                            0x0800544c   Section        0  rt_cmsis.o(i.sysMailFree)
    i.sysTimerTick                           0x080054ac   Section        0  rt_cmsis.o(i.sysTimerTick)
    i.tlsf_free                              0x08005508   Section        0  tlsf.o(i.tlsf_free)
    i.tlsf_malloc                            0x08005548   Section        0  tlsf.o(i.tlsf_malloc)
    i.vwm_clear_wnd_timer                    0x080055cc   Section        0  vmsgexec.o(i.vwm_clear_wnd_timer)
    i.vwm_create_timer                       0x080055e4   Section        0  vmsgexec.o(i.vwm_create_timer)
    i.vwm_delete_timer                       0x0800565c   Section        0  vmsgexec.o(i.vwm_delete_timer)
    i.vwm_find_timer_by_wnd                  0x080056b8   Section        0  vmsgexec.o(i.vwm_find_timer_by_wnd)
    i.vwm_send_message                       0x080056d0   Section        0  vmsgexec.o(i.vwm_send_message)
    i.vwm_start_timer                        0x08005700   Section        0  vmsgexec.o(i.vwm_start_timer)
    i.vwm_timer_init                         0x08005710   Section        0  vmsgexec.o(i.vwm_timer_init)
    .constdata                               0x08005720   Section        5  main.o(.constdata)
    __FUNCTION__                             0x08005720   Data           5  main.o(.constdata)
    .constdata                               0x08005725   Section       18  stm32f1xx_hal_rcc.o(.constdata)
    aPredivFactorTable                       0x08005725   Data           2  stm32f1xx_hal_rcc.o(.constdata)
    aPLLMULFactorTable                       0x08005727   Data          16  stm32f1xx_hal_rcc.o(.constdata)
    .constdata                               0x08005737   Section       16  system_stm32f1xx.o(.constdata)
    .constdata                               0x08005747   Section        8  system_stm32f1xx.o(.constdata)
    .constdata                               0x08005750   Section       12  vmsgexec.o(.constdata)
    .constdata                               0x0800575c   Section       49  app.o(.constdata)
    __FUNCTION__                             0x08005774   Data           9  app.o(.constdata)
    __FUNCTION__                             0x0800577d   Data          16  app.o(.constdata)
    .constdata                               0x08005790   Section     1028  tlsf.o(.constdata)
    table                                    0x08005794   Data        1024  tlsf.o(.constdata)
    .constdata                               0x08005b94   Section      226  elog.o(.constdata)
    __FUNCTION__                             0x08005b94   Data          11  elog.o(.constdata)
    __FUNCTION__                             0x08005b9f   Data          10  elog.o(.constdata)
    __FUNCTION__                             0x08005ba9   Data          24  elog.o(.constdata)
    __FUNCTION__                             0x08005bc1   Data          28  elog.o(.constdata)
    __FUNCTION__                             0x08005bdd   Data          13  elog.o(.constdata)
    __FUNCTION__                             0x08005bea   Data          16  elog.o(.constdata)
    __FUNCTION__                             0x08005bfa   Data          20  elog.o(.constdata)
    __FUNCTION__                             0x08005c0e   Data          24  elog.o(.constdata)
    __FUNCTION__                             0x08005c26   Data          24  elog.o(.constdata)
    __FUNCTION__                             0x08005c3e   Data          12  elog.o(.constdata)
    __FUNCTION__                             0x08005c4a   Data          16  elog.o(.constdata)
    __FUNCTION__                             0x08005c5a   Data          14  elog.o(.constdata)
    __FUNCTION__                             0x08005c68   Data          14  elog.o(.constdata)
    .constdata                               0x08005c76   Section       35  elog_utils.o(.constdata)
    __FUNCTION__                             0x08005c76   Data          12  elog_utils.o(.constdata)
    __FUNCTION__                             0x08005c82   Data          11  elog_utils.o(.constdata)
    __FUNCTION__                             0x08005c8d   Data          12  elog_utils.o(.constdata)
    .constdata                               0x08005c9a   Section        2  rtx_conf_cm.o(.constdata)
    .constdata                               0x08005c9c   Section        4  rtx_conf_cm.o(.constdata)
    .constdata                               0x08005ca0   Section        4  rtx_conf_cm.o(.constdata)
    .constdata                               0x08005ca4   Section        4  rtx_conf_cm.o(.constdata)
    .constdata                               0x08005ca8   Section        1  rtx_conf_cm.o(.constdata)
    .constdata                               0x08005cac   Section       32  rtx_conf_cm.o(.constdata)
    __tagsym$$used                           0x08005cac   Number         0  rtx_conf_cm.o(.constdata)
    __tagsym$$used                           0x08005cb0   Number         0  rtx_conf_cm.o(.constdata)
    __tagsym$$used                           0x08005cb4   Number         0  rtx_conf_cm.o(.constdata)
    __tagsym$$used                           0x08005cb8   Number         0  rtx_conf_cm.o(.constdata)
    .constdata                               0x08005ccc   Section        2  rtx_conf_cm.o(.constdata)
    .constdata                               0x08005cd0   Section        4  rtx_conf_cm.o(.constdata)
    .constdata                               0x08005cd4   Section        4  rtx_conf_cm.o(.constdata)
    .constdata                               0x08005cd8   Section        1  rtx_conf_cm.o(.constdata)
    .constdata                               0x08005cdc   Section       16  rtx_conf_cm.o(.constdata)
    .constdata                               0x08005cec   Section        8  rtx_conf_cm.o(.constdata)
    .constdata                               0x08005cf4   Section        2  rtx_conf_cm.o(.constdata)
    .conststring                             0x08005cf8   Section       71  elog.o(.conststring)
    .data                                    0x20000000   Section       12  stm32f1xx_hal.o(.data)
    .data                                    0x2000000c   Section        4  system_stm32f1xx.o(.data)
    .data                                    0x20000010   Section        8  vmsgexec.o(.data)
    .data                                    0x20000018   Section       20  vmsgexec.o(.data)
    .data                                    0x2000002c   Section       12  tlsf.o(.data)
    mem_errorno                              0x2000002c   Data           1  tlsf.o(.data)
    .data                                    0x20000038   Section       52  elog.o(.data)
    level_output_info                        0x2000003c   Data          24  elog.o(.data)
    color_output_info                        0x20000054   Data          24  elog.o(.data)
    .data                                    0x2000006c   Section        4  rtx_conf_cm.o(.data)
    .data                                    0x20000070   Section        4  rtx_conf_cm.o(.data)
    .data                                    0x20000074   Section        4  rtx_conf_cm.o(.data)
    .data                                    0x20000078   Section        8  rt_cmsis.o(.data)
    .data                                    0x20000080   Section        4  rt_time.o(.data)
    .data                                    0x20000084   Section        8  rt_task.o(.data)
    .data                                    0x2000008c   Section        8  rt_system.o(.data)
    os_lock                                  0x2000008c   Data           1  rt_system.o(.data)
    os_psh_flag                              0x2000008d   Data           1  rt_system.o(.data)
    pend_flags                               0x2000008e   Data           1  rt_system.o(.data)
    .data                                    0x20000094   Section        1  hal_cm.o(.data)
    .data                                    0x20000098   Section        8  rt_robin.o(.data)
    .data                                    0x200000a0   Section        4  stdout.o(.data)
    .bss                                     0x200000a4   Section      216  main.o(.bss)
    .bss                                     0x2000017c   Section       12  vkey.o(.bss)
    .bss                                     0x20000188   Section      272  vmsgexec.o(.bss)
    .bss                                     0x20000298   Section     1292  vmsgexec.o(.bss)
    .bss                                     0x200007a4   Section       16  app.o(.bss)
    .bss                                     0x200007b4   Section       16  tlsf.o(.bss)
    .bss                                     0x200007c4   Section    25600  tlsf.o(.bss)
    work_mem                                 0x200007c4   Data       25600  tlsf.o(.bss)
    .bss                                     0x20006bc4   Section     1272  elog.o(.bss)
    log_buf                                  0x20006bc4   Data        1024  elog.o(.bss)
    elog                                     0x20006fc4   Data         248  elog.o(.bss)
    .bss                                     0x200070bc   Section       80  rtx_conf_cm.o(.bss)
    .bss                                     0x2000710c   Section      324  rtx_conf_cm.o(.bss)
    .bss                                     0x20007250   Section     5136  rtx_conf_cm.o(.bss)
    .bss                                     0x20008660   Section     1568  rtx_conf_cm.o(.bss)
    .bss                                     0x20008c80   Section      516  rtx_conf_cm.o(.bss)
    .bss                                     0x20008e84   Section       24  rtx_conf_cm.o(.bss)
    .bss                                     0x20008e9c   Section       52  rt_task.o(.bss)
    .bss                                     0x20008ed0   Section       48  rt_list.o(.bss)
    STACK                                    0x20008f00   Section     1024  startup_stm32f103xe.o(STACK)

    Global Symbols

    Symbol Name                              Value     Ov Type        Size  Object(Section)

    BuildAttributes$$THM_ISAv4$P$D$K$B$S$PE$A:L22UL41UL21$X:L11$S22US41US21$IEEE1$IW$USESV6$~STKCKD$USESV7$~SHL$OSPACE$ROPI$EBA8$MICROLIB$REQ8$PRES8$EABIv2 0x00000000   Number         0  anon$$obj.o ABSOLUTE
    __ARM_use_no_argv                        0x00000000   Number         0  main.o ABSOLUTE
    _printf_a                                0x00000000   Number         0  stubs.o ABSOLUTE
    _printf_c                                0x00000000   Number         0  stubs.o ABSOLUTE
    _printf_charcount                        0x00000000   Number         0  stubs.o ABSOLUTE
    _printf_d                                0x00000000   Number         0  stubs.o ABSOLUTE
    _printf_e                                0x00000000   Number         0  stubs.o ABSOLUTE
    _printf_f                                0x00000000   Number         0  stubs.o ABSOLUTE
    _printf_flags                            0x00000000   Number         0  stubs.o ABSOLUTE
    _printf_fp_dec                           0x00000000   Number         0  stubs.o ABSOLUTE
    _printf_fp_hex                           0x00000000   Number         0  stubs.o ABSOLUTE
    _printf_g                                0x00000000   Number         0  stubs.o ABSOLUTE
    _printf_i                                0x00000000   Number         0  stubs.o ABSOLUTE
    _printf_int_dec                          0x00000000   Number         0  stubs.o ABSOLUTE
    _printf_l                                0x00000000   Number         0  stubs.o ABSOLUTE
    _printf_lc                               0x00000000   Number         0  stubs.o ABSOLUTE
    _printf_ll                               0x00000000   Number         0  stubs.o ABSOLUTE
    _printf_lld                              0x00000000   Number         0  stubs.o ABSOLUTE
    _printf_lli                              0x00000000   Number         0  stubs.o ABSOLUTE
    _printf_llo                              0x00000000   Number         0  stubs.o ABSOLUTE
    _printf_llu                              0x00000000   Number         0  stubs.o ABSOLUTE
    _printf_llx                              0x00000000   Number         0  stubs.o ABSOLUTE
    _printf_longlong_dec                     0x00000000   Number         0  stubs.o ABSOLUTE
    _printf_longlong_hex                     0x00000000   Number         0  stubs.o ABSOLUTE
    _printf_longlong_oct                     0x00000000   Number         0  stubs.o ABSOLUTE
    _printf_ls                               0x00000000   Number         0  stubs.o ABSOLUTE
    _printf_mbtowc                           0x00000000   Number         0  stubs.o ABSOLUTE
    _printf_n                                0x00000000   Number         0  stubs.o ABSOLUTE
    _printf_o                                0x00000000   Number         0  stubs.o ABSOLUTE
    _printf_p                                0x00000000   Number         0  stubs.o ABSOLUTE
    _printf_percent                          0x00000000   Number         0  stubs.o ABSOLUTE
    _printf_pre_padding                      0x00000000   Number         0  stubs.o ABSOLUTE
    _printf_return_value                     0x00000000   Number         0  stubs.o ABSOLUTE
    _printf_s                                0x00000000   Number         0  stubs.o ABSOLUTE
    _printf_sizespec                         0x00000000   Number         0  stubs.o ABSOLUTE
    _printf_str                              0x00000000   Number         0  stubs.o ABSOLUTE
    _printf_truncate_signed                  0x00000000   Number         0  stubs.o ABSOLUTE
    _printf_truncate_unsigned                0x00000000   Number         0  stubs.o ABSOLUTE
    _printf_u                                0x00000000   Number         0  stubs.o ABSOLUTE
    _printf_wc                               0x00000000   Number         0  stubs.o ABSOLUTE
    _printf_wctomb                           0x00000000   Number         0  stubs.o ABSOLUTE
    _printf_widthprec                        0x00000000   Number         0  stubs.o ABSOLUTE
    _printf_x                                0x00000000   Number         0  stubs.o ABSOLUTE
    __arm_fini_                               - Undefined Weak Reference
    __cpp_initialize__aeabi_                  - Undefined Weak Reference
    __cxa_finalize                            - Undefined Weak Reference
    __decompress                              - Undefined Weak Reference
    _clock_init                               - Undefined Weak Reference
    _microlib_exit                            - Undefined Weak Reference
    __Vectors_Size                           0x00000130   Number         0  startup_stm32f103xe.o ABSOLUTE
    __RL_RTX_VER                             0x00000482   Number         0  rt_system.o ABSOLUTE
    __Vectors                                0x08000000   Data           4  startup_stm32f103xe.o(RESET)
    __Vectors_End                            0x08000130   Data           0  startup_stm32f103xe.o(RESET)
    __main                                   0x08000131   Thumb Code     0  entry.o(.ARM.Collect$$$$00000000)
    _main_stk                                0x08000131   Thumb Code     0  entry2.o(.ARM.Collect$$$$00000001)
    _main_scatterload                        0x08000135   Thumb Code     0  entry5.o(.ARM.Collect$$$$00000004)
    __main_after_scatterload                 0x08000139   Thumb Code     0  entry5.o(.ARM.Collect$$$$00000004)
    __rt_lib_shutdown_fini                   0x08000139   Thumb Code     0  entry12b.o(.ARM.Collect$$$$0000000E)
    _main_clock                              0x08000139   Thumb Code     0  entry7b.o(.ARM.Collect$$$$00000008)
    _main_cpp_init                           0x08000139   Thumb Code     0  entry8b.o(.ARM.Collect$$$$0000000A)
    __rt_final_cpp                           0x0800013d   Thumb Code     0  entry10a.o(.ARM.Collect$$$$0000000F)
    __rt_final_exit                          0x0800013d   Thumb Code     0  entry11a.o(.ARM.Collect$$$$00000011)
    _main_init                               0x0800013d   Thumb Code    18  rtx_conf_cm.o(.ARM.Collect$$$$000000FF)
    rt_set_PSP                               0x08000159   Thumb Code     6  hal_cm3.o(.emb_text)
    rt_get_PSP                               0x0800015f   Thumb Code     6  hal_cm3.o(.emb_text)
    os_set_env                               0x08000165   Thumb Code    24  hal_cm3.o(.emb_text)
    _alloc_box                               0x08000181   Thumb Code    28  hal_cm3.o(.emb_text)
    _free_box                                0x080001a1   Thumb Code    28  hal_cm3.o(.emb_text)
    SVC_Handler                              0x080001c1   Thumb Code   108  hal_cm3.o(.emb_text)
    PendSV_Handler                           0x08000239   Thumb Code    56  hal_cm3.o(.emb_text)
    SysTick_Handler                          0x08000275   Thumb Code     8  hal_cm3.o(.emb_text)
    OS_Tick_Handler                          0x0800027d   Thumb Code    12  hal_cm3.o(.emb_text)
    Reset_Handler                            0x08000289   Thumb Code     8  startup_stm32f103xe.o(.text)
    ADC1_2_IRQHandler                        0x080002a3   Thumb Code     0  startup_stm32f103xe.o(.text)
    ADC3_IRQHandler                          0x080002a3   Thumb Code     0  startup_stm32f103xe.o(.text)
    CAN1_RX1_IRQHandler                      0x080002a3   Thumb Code     0  startup_stm32f103xe.o(.text)
    CAN1_SCE_IRQHandler                      0x080002a3   Thumb Code     0  startup_stm32f103xe.o(.text)
    DMA1_Channel1_IRQHandler                 0x080002a3   Thumb Code     0  startup_stm32f103xe.o(.text)
    DMA1_Channel2_IRQHandler                 0x080002a3   Thumb Code     0  startup_stm32f103xe.o(.text)
    DMA1_Channel3_IRQHandler                 0x080002a3   Thumb Code     0  startup_stm32f103xe.o(.text)
    DMA1_Channel4_IRQHandler                 0x080002a3   Thumb Code     0  startup_stm32f103xe.o(.text)
    DMA1_Channel5_IRQHandler                 0x080002a3   Thumb Code     0  startup_stm32f103xe.o(.text)
    DMA1_Channel6_IRQHandler                 0x080002a3   Thumb Code     0  startup_stm32f103xe.o(.text)
    DMA1_Channel7_IRQHandler                 0x080002a3   Thumb Code     0  startup_stm32f103xe.o(.text)
    DMA2_Channel1_IRQHandler                 0x080002a3   Thumb Code     0  startup_stm32f103xe.o(.text)
    DMA2_Channel2_IRQHandler                 0x080002a3   Thumb Code     0  startup_stm32f103xe.o(.text)
    DMA2_Channel3_IRQHandler                 0x080002a3   Thumb Code     0  startup_stm32f103xe.o(.text)
    DMA2_Channel4_5_IRQHandler               0x080002a3   Thumb Code     0  startup_stm32f103xe.o(.text)
    EXTI0_IRQHandler                         0x080002a3   Thumb Code     0  startup_stm32f103xe.o(.text)
    EXTI15_10_IRQHandler                     0x080002a3   Thumb Code     0  startup_stm32f103xe.o(.text)
    EXTI1_IRQHandler                         0x080002a3   Thumb Code     0  startup_stm32f103xe.o(.text)
    EXTI2_IRQHandler                         0x080002a3   Thumb Code     0  startup_stm32f103xe.o(.text)
    EXTI3_IRQHandler                         0x080002a3   Thumb Code     0  startup_stm32f103xe.o(.text)
    EXTI4_IRQHandler                         0x080002a3   Thumb Code     0  startup_stm32f103xe.o(.text)
    EXTI9_5_IRQHandler                       0x080002a3   Thumb Code     0  startup_stm32f103xe.o(.text)
    FLASH_IRQHandler                         0x080002a3   Thumb Code     0  startup_stm32f103xe.o(.text)
    FSMC_IRQHandler                          0x080002a3   Thumb Code     0  startup_stm32f103xe.o(.text)
    I2C1_ER_IRQHandler                       0x080002a3   Thumb Code     0  startup_stm32f103xe.o(.text)
    I2C1_EV_IRQHandler                       0x080002a3   Thumb Code     0  startup_stm32f103xe.o(.text)
    I2C2_ER_IRQHandler                       0x080002a3   Thumb Code     0  startup_stm32f103xe.o(.text)
    I2C2_EV_IRQHandler                       0x080002a3   Thumb Code     0  startup_stm32f103xe.o(.text)
    PVD_IRQHandler                           0x080002a3   Thumb Code     0  startup_stm32f103xe.o(.text)
    RCC_IRQHandler                           0x080002a3   Thumb Code     0  startup_stm32f103xe.o(.text)
    RTC_Alarm_IRQHandler                     0x080002a3   Thumb Code     0  startup_stm32f103xe.o(.text)
    RTC_IRQHandler                           0x080002a3   Thumb Code     0  startup_stm32f103xe.o(.text)
    SDIO_IRQHandler                          0x080002a3   Thumb Code     0  startup_stm32f103xe.o(.text)
    SPI1_IRQHandler                          0x080002a3   Thumb Code     0  startup_stm32f103xe.o(.text)
    SPI2_IRQHandler                          0x080002a3   Thumb Code     0  startup_stm32f103xe.o(.text)
    SPI3_IRQHandler                          0x080002a3   Thumb Code     0  startup_stm32f103xe.o(.text)
    TAMPER_IRQHandler                        0x080002a3   Thumb Code     0  startup_stm32f103xe.o(.text)
    TIM1_BRK_IRQHandler                      0x080002a3   Thumb Code     0  startup_stm32f103xe.o(.text)
    TIM1_CC_IRQHandler                       0x080002a3   Thumb Code     0  startup_stm32f103xe.o(.text)
    TIM1_TRG_COM_IRQHandler                  0x080002a3   Thumb Code     0  startup_stm32f103xe.o(.text)
    TIM1_UP_IRQHandler                       0x080002a3   Thumb Code     0  startup_stm32f103xe.o(.text)
    TIM2_IRQHandler                          0x080002a3   Thumb Code     0  startup_stm32f103xe.o(.text)
    TIM3_IRQHandler                          0x080002a3   Thumb Code     0  startup_stm32f103xe.o(.text)
    TIM4_IRQHandler                          0x080002a3   Thumb Code     0  startup_stm32f103xe.o(.text)
    TIM5_IRQHandler                          0x080002a3   Thumb Code     0  startup_stm32f103xe.o(.text)
    TIM6_IRQHandler                          0x080002a3   Thumb Code     0  startup_stm32f103xe.o(.text)
    TIM7_IRQHandler                          0x080002a3   Thumb Code     0  startup_stm32f103xe.o(.text)
    TIM8_BRK_IRQHandler                      0x080002a3   Thumb Code     0  startup_stm32f103xe.o(.text)
    TIM8_CC_IRQHandler                       0x080002a3   Thumb Code     0  startup_stm32f103xe.o(.text)
    TIM8_TRG_COM_IRQHandler                  0x080002a3   Thumb Code     0  startup_stm32f103xe.o(.text)
    TIM8_UP_IRQHandler                       0x080002a3   Thumb Code     0  startup_stm32f103xe.o(.text)
    UART4_IRQHandler                         0x080002a3   Thumb Code     0  startup_stm32f103xe.o(.text)
    UART5_IRQHandler                         0x080002a3   Thumb Code     0  startup_stm32f103xe.o(.text)
    USART2_IRQHandler                        0x080002a3   Thumb Code     0  startup_stm32f103xe.o(.text)
    USBWakeUp_IRQHandler                     0x080002a3   Thumb Code     0  startup_stm32f103xe.o(.text)
    USB_HP_CAN1_TX_IRQHandler                0x080002a3   Thumb Code     0  startup_stm32f103xe.o(.text)
    USB_LP_CAN1_RX0_IRQHandler               0x080002a3   Thumb Code     0  startup_stm32f103xe.o(.text)
    WWDG_IRQHandler                          0x080002a3   Thumb Code     0  startup_stm32f103xe.o(.text)
    __aeabi_uldivmod                         0x080002ad   Thumb Code    98  uldiv.o(.text)
    __aeabi_llsr                             0x0800030f   Thumb Code    32  llushr.o(.text)
    _ll_ushift_r                             0x0800030f   Thumb Code     0  llushr.o(.text)
    __aeabi_memset                           0x0800032f   Thumb Code    14  memseta.o(.text)
    __aeabi_memset4                          0x0800032f   Thumb Code     0  memseta.o(.text)
    __aeabi_memset8                          0x0800032f   Thumb Code     0  memseta.o(.text)
    __aeabi_memclr                           0x0800033d   Thumb Code     4  memseta.o(.text)
    __aeabi_memclr4                          0x0800033d   Thumb Code     0  memseta.o(.text)
    __aeabi_memclr8                          0x0800033d   Thumb Code     0  memseta.o(.text)
    _memset$wrapper                          0x08000341   Thumb Code    18  memseta.o(.text)
    strstr                                   0x08000353   Thumb Code    36  strstr.o(.text)
    strlen                                   0x08000377   Thumb Code    14  strlen.o(.text)
    strncmp                                  0x08000385   Thumb Code    30  strncmp.o(.text)
    __aeabi_uidiv                            0x080003a3   Thumb Code     0  uidiv.o(.text)
    __aeabi_uidivmod                         0x080003a3   Thumb Code    44  uidiv.o(.text)
    __aeabi_llsl                             0x080003cf   Thumb Code    30  llshl.o(.text)
    _ll_shift_l                              0x080003cf   Thumb Code     0  llshl.o(.text)
    __I$use$fp                               0x080003ed   Thumb Code     0  iusefp.o(.text)
    __aeabi_dadd                             0x080003ed   Thumb Code   322  dadd.o(.text)
    __aeabi_dsub                             0x0800052f   Thumb Code     6  dadd.o(.text)
    __aeabi_drsub                            0x08000535   Thumb Code     6  dadd.o(.text)
    __aeabi_dmul                             0x0800053b   Thumb Code   228  dmul.o(.text)
    __aeabi_ddiv                             0x0800061f   Thumb Code   222  ddiv.o(.text)
    __aeabi_d2ulz                            0x080006fd   Thumb Code    48  dfixul.o(.text)
    __aeabi_cdrcmple                         0x0800072d   Thumb Code    48  cdrcmple.o(.text)
    __scatterload                            0x0800075d   Thumb Code    28  init.o(.text)
    __scatterload_rt2                        0x0800075d   Thumb Code     0  init.o(.text)
    __aeabi_lasr                             0x08000781   Thumb Code    36  llsshr.o(.text)
    _ll_sshift_r                             0x08000781   Thumb Code     0  llsshr.o(.text)
    _double_round                            0x080007a5   Thumb Code    30  depilogue.o(.text)
    _double_epilogue                         0x080007c3   Thumb Code   156  depilogue.o(.text)
    SVC_Count                                0x08000860   Data           4  svc_table.o(SVC_TABLE)
    BusFault_Handler                         0x08000865   Thumb Code     2  stm32f1xx_it.o(i.BusFault_Handler)
    SVC_Table                                0x08000864   Data           0  svc_table.o(SVC_TABLE)
    DHT11_Check                              0x08000869   Thumb Code    88  dht11.o(i.DHT11_Check)
    DHT11_IO_IN                              0x080008c5   Thumb Code    28  dht11.o(i.DHT11_IO_IN)
    DHT11_IO_OUT                             0x080008e5   Thumb Code    50  dht11.o(i.DHT11_IO_OUT)
    DHT11_RST                                0x0800091d   Thumb Code    48  dht11.o(i.DHT11_RST)
    DHT11_Read_Bit                           0x08000951   Thumb Code    84  dht11.o(i.DHT11_Read_Bit)
    DHT11_Read_Byte                          0x080009a9   Thumb Code    26  dht11.o(i.DHT11_Read_Byte)
    DHT11_Read_Data                          0x080009c3   Thumb Code    80  dht11.o(i.DHT11_Read_Data)
    DebugMon_Handler                         0x08000a13   Thumb Code     2  stm32f1xx_it.o(i.DebugMon_Handler)
    Delay_us                                 0x08000a15   Thumb Code    36  dht11.o(i.Delay_us)
    HAL_DMA_Abort                            0x08000a3d   Thumb Code    70  stm32f1xx_hal_dma.o(i.HAL_DMA_Abort)
    HAL_DMA_Abort_IT                         0x08000a85   Thumb Code   296  stm32f1xx_hal_dma.o(i.HAL_DMA_Abort_IT)
    HAL_Delay                                0x08000bb5   Thumb Code    32  stm32f1xx_hal.o(i.HAL_Delay)
    HAL_GPIO_Init                            0x08000bd9   Thumb Code   462  stm32f1xx_hal_gpio.o(i.HAL_GPIO_Init)
    HAL_GPIO_ReadPin                         0x08000dd1   Thumb Code    10  stm32f1xx_hal_gpio.o(i.HAL_GPIO_ReadPin)
    HAL_GPIO_TogglePin                       0x08000ddb   Thumb Code    16  stm32f1xx_hal_gpio.o(i.HAL_GPIO_TogglePin)
    HAL_GPIO_WritePin                        0x08000deb   Thumb Code    10  stm32f1xx_hal_gpio.o(i.HAL_GPIO_WritePin)
    HAL_GetTick                              0x08000df5   Thumb Code     6  os_port.o(i.HAL_GetTick)
    HAL_Init                                 0x08000e01   Thumb Code    32  stm32f1xx_hal.o(i.HAL_Init)
    HAL_InitTick                             0x08000e25   Thumb Code    54  stm32f1xx_hal.o(i.HAL_InitTick)
    HAL_MspInit                              0x08000e65   Thumb Code    64  stm32f1xx_hal_msp.o(i.HAL_MspInit)
    HAL_NVIC_EnableIRQ                       0x08000ead   Thumb Code    26  stm32f1xx_hal_cortex.o(i.HAL_NVIC_EnableIRQ)
    HAL_NVIC_SetPriority                     0x08000ec9   Thumb Code    60  stm32f1xx_hal_cortex.o(i.HAL_NVIC_SetPriority)
    HAL_NVIC_SetPriorityGrouping             0x08000f09   Thumb Code    26  stm32f1xx_hal_cortex.o(i.HAL_NVIC_SetPriorityGrouping)
    HAL_RCC_ClockConfig                      0x08000f2d   Thumb Code   280  stm32f1xx_hal_rcc.o(i.HAL_RCC_ClockConfig)
    HAL_RCC_GetPCLK1Freq                     0x08001059   Thumb Code    20  stm32f1xx_hal_rcc.o(i.HAL_RCC_GetPCLK1Freq)
    HAL_RCC_GetPCLK2Freq                     0x08001079   Thumb Code    20  stm32f1xx_hal_rcc.o(i.HAL_RCC_GetPCLK2Freq)
    HAL_RCC_GetSysClockFreq                  0x08001099   Thumb Code    58  stm32f1xx_hal_rcc.o(i.HAL_RCC_GetSysClockFreq)
    HAL_RCC_OscConfig                        0x080010e5   Thumb Code   778  stm32f1xx_hal_rcc.o(i.HAL_RCC_OscConfig)
    HAL_SYSTICK_Config                       0x08001405   Thumb Code    40  stm32f1xx_hal_cortex.o(i.HAL_SYSTICK_Config)
    HAL_TIMEx_MasterConfigSynchronization    0x0800142d   Thumb Code   104  stm32f1xx_hal_tim_ex.o(i.HAL_TIMEx_MasterConfigSynchronization)
    HAL_TIM_Base_Init                        0x080014a9   Thumb Code    90  stm32f1xx_hal_tim.o(i.HAL_TIM_Base_Init)
    HAL_TIM_Base_MspInit                     0x08001505   Thumb Code    30  stm32f1xx_hal_msp.o(i.HAL_TIM_Base_MspInit)
    HAL_TIM_Base_Start                       0x0800152d   Thumb Code    78  stm32f1xx_hal_tim.o(i.HAL_TIM_Base_Start)
    HAL_TIM_Base_Stop                        0x08001591   Thumb Code    38  stm32f1xx_hal_tim.o(i.HAL_TIM_Base_Stop)
    HAL_TIM_ConfigClockSource                0x080015b7   Thumb Code   220  stm32f1xx_hal_tim.o(i.HAL_TIM_ConfigClockSource)
    HAL_UARTEx_RxEventCallback               0x08001693   Thumb Code     2  stm32f1xx_hal_uart.o(i.HAL_UARTEx_RxEventCallback)
    HAL_UART_ErrorCallback                   0x08001695   Thumb Code     2  stm32f1xx_hal_uart.o(i.HAL_UART_ErrorCallback)
    HAL_UART_IRQHandler                      0x08001699   Thumb Code   616  stm32f1xx_hal_uart.o(i.HAL_UART_IRQHandler)
    HAL_UART_Init                            0x08001905   Thumb Code   100  stm32f1xx_hal_uart.o(i.HAL_UART_Init)
    HAL_UART_MspInit                         0x08001969   Thumb Code   198  stm32f1xx_hal_msp.o(i.HAL_UART_MspInit)
    HAL_UART_RxCpltCallback                  0x08001a45   Thumb Code     2  stm32f1xx_hal_uart.o(i.HAL_UART_RxCpltCallback)
    HAL_UART_Transmit                        0x08001a47   Thumb Code   154  stm32f1xx_hal_uart.o(i.HAL_UART_Transmit)
    HAL_UART_TxCpltCallback                  0x08001ae1   Thumb Code     2  stm32f1xx_hal_uart.o(i.HAL_UART_TxCpltCallback)
    HardFault_Handler                        0x08001ae3   Thumb Code     2  stm32f1xx_it.o(i.HardFault_Handler)
    MemManage_Handler                        0x08001c21   Thumb Code     2  stm32f1xx_it.o(i.MemManage_Handler)
    NMI_Handler                              0x08001c23   Thumb Code     2  stm32f1xx_it.o(i.NMI_Handler)
    SystemClock_Config                       0x08001c25   Thumb Code    94  main.o(i.SystemClock_Config)
    SystemInit                               0x08001c83   Thumb Code     2  system_stm32f1xx.o(i.SystemInit)
    TIM_Base_SetConfig                       0x08001c85   Thumb Code   120  stm32f1xx_hal_tim.o(i.TIM_Base_SetConfig)
    TIM_ETR_SetConfig                        0x08001d11   Thumb Code    20  stm32f1xx_hal_tim.o(i.TIM_ETR_SetConfig)
    USART1_IRQHandler                        0x08001fcd   Thumb Code     6  stm32f1xx_it.o(i.USART1_IRQHandler)
    USART3_IRQHandler                        0x08001fd9   Thumb Code     6  stm32f1xx_it.o(i.USART3_IRQHandler)
    UsageFault_Handler                       0x08001fe5   Thumb Code     2  stm32f1xx_it.o(i.UsageFault_Handler)
    __0printf                                0x08001fe9   Thumb Code    22  printfa.o(i.__0printf)
    __1printf                                0x08001fe9   Thumb Code     0  printfa.o(i.__0printf)
    __2printf                                0x08001fe9   Thumb Code     0  printfa.o(i.__0printf)
    __c89printf                              0x08001fe9   Thumb Code     0  printfa.o(i.__0printf)
    printf                                   0x08001fe9   Thumb Code     0  printfa.o(i.__0printf)
    __0snprintf                              0x08002009   Thumb Code    48  printfa.o(i.__0snprintf)
    __1snprintf                              0x08002009   Thumb Code     0  printfa.o(i.__0snprintf)
    __2snprintf                              0x08002009   Thumb Code     0  printfa.o(i.__0snprintf)
    __c89snprintf                            0x08002009   Thumb Code     0  printfa.o(i.__0snprintf)
    snprintf                                 0x08002009   Thumb Code     0  printfa.o(i.__0snprintf)
    __0vsnprintf                             0x0800203d   Thumb Code    46  printfa.o(i.__0vsnprintf)
    __1vsnprintf                             0x0800203d   Thumb Code     0  printfa.o(i.__0vsnprintf)
    __2vsnprintf                             0x0800203d   Thumb Code     0  printfa.o(i.__0vsnprintf)
    __c89vsnprintf                           0x0800203d   Thumb Code     0  printfa.o(i.__0vsnprintf)
    vsnprintf                                0x0800203d   Thumb Code     0  printfa.o(i.__0vsnprintf)
    __scatterload_copy                       0x08002091   Thumb Code    14  handlers.o(i.__scatterload_copy)
    __scatterload_null                       0x0800209f   Thumb Code     2  handlers.o(i.__scatterload_null)
    __scatterload_zeroinit                   0x080020a1   Thumb Code    14  handlers.o(i.__scatterload_zeroinit)
    _init_box                                0x08002235   Thumb Code    70  rt_membox.o(i._init_box)
    app_dlgcallback                          0x08002999   Thumb Code   350  app.o(i.app_dlgcallback)
    app_init                                 0x08002bb1   Thumb Code    86  app.o(i.app_init)
    dbg_init                                 0x08002c8d   Thumb Code    34  hal_cm.o(i.dbg_init)
    dbg_task_notify                          0x08002cbd   Thumb Code    32  hal_cm.o(i.dbg_task_notify)
    dbg_task_switch                          0x08002cdd   Thumb Code    16  hal_cm.o(i.dbg_task_switch)
    dm_init                                  0x08002ced   Thumb Code    10  tlsf.o(i.dm_init)
    elog_get_filter_tag_lvl                  0x08002cfd   Thumb Code   130  elog.o(i.elog_get_filter_tag_lvl)
    elog_init                                0x08002de9   Thumb Code   100  elog.o(i.elog_init)
    elog_output                              0x08002e51   Thumb Code   720  elog.o(i.elog_output)
    elog_output_lock                         0x080031c1   Thumb Code    28  elog.o(i.elog_output_lock)
    elog_output_lock_enabled                 0x080031e1   Thumb Code    40  elog.o(i.elog_output_lock_enabled)
    elog_output_unlock                       0x0800320d   Thumb Code    28  elog.o(i.elog_output_unlock)
    elog_port_get_p_info                     0x0800322d   Thumb Code     4  elog_port.o(i.elog_port_get_p_info)
    elog_port_get_t_info                     0x08003235   Thumb Code     4  elog_port.o(i.elog_port_get_t_info)
    elog_port_get_time                       0x0800323d   Thumb Code     2  elog_port.o(i.elog_port_get_time)
    elog_port_init                           0x0800323f   Thumb Code     4  elog_port.o(i.elog_port_init)
    elog_port_output                         0x08003245   Thumb Code     8  elog_port.o(i.elog_port_output)
    elog_port_output_lock                    0x08003255   Thumb Code     2  elog_port.o(i.elog_port_output_lock)
    elog_port_output_unlock                  0x08003257   Thumb Code     2  elog_port.o(i.elog_port_output_unlock)
    elog_set_filter_lvl                      0x08003259   Thumb Code    64  elog.o(i.elog_set_filter_lvl)
    elog_set_fmt                             0x08003309   Thumb Code    72  elog.o(i.elog_set_fmt)
    elog_start                               0x080033c1   Thumb Code    42  elog.o(i.elog_start)
    elog_strcpy                              0x08003449   Thumb Code   148  elog_utils.o(i.elog_strcpy)
    fputc                                    0x08003539   Thumb Code    20  main.o(i.fputc)
    free_ex                                  0x08003551   Thumb Code   380  tlsf.o(i.free_ex)
    init_memory_pool                         0x08003791   Thumb Code   148  tlsf.o(i.init_memory_pool)
    isrMessageGet                            0x08003899   Thumb Code    42  rt_cmsis.o(i.isrMessageGet)
    isrMessagePut                            0x080038c3   Thumb Code    44  rt_cmsis.o(i.isrMessagePut)
    isr_mbx_receive                          0x080038f1   Thumb Code    86  rt_mailbox.o(i.isr_mbx_receive)
    isr_mbx_send                             0x08003947   Thumb Code    14  rt_mailbox.o(i.isr_mbx_send)
    key_scan__getkeystate                    0x08003955   Thumb Code    18  vkey.o(i.key_scan__getkeystate)
    key_scan__init                           0x0800396d   Thumb Code   112  vkey.o(i.key_scan__init)
    key_scan__scan                           0x080039e1   Thumb Code    84  vkey.o(i.key_scan__scan)
    main                                     0x08003a6d   Thumb Code   190  main.o(i.main)
    malloc_ex                                0x08003b75   Thumb Code   380  tlsf.o(i.malloc_ex)
    msgexec_alloc_message                    0x08003d25   Thumb Code    10  vmsgexec.o(i.msgexec_alloc_message)
    msgexec_create_module                    0x08003d35   Thumb Code    86  vmsgexec.o(i.msgexec_create_module)
    msgexec_exec                             0x08003d91   Thumb Code    58  vmsgexec.o(i.msgexec_exec)
    msgexec_free_module                      0x08003dd1   Thumb Code    86  vmsgexec.o(i.msgexec_free_module)
    msgexec_init                             0x08003e2d   Thumb Code    24  vmsgexec.o(i.msgexec_init)
    msgexec_put_message                      0x08003e4d   Thumb Code    16  vmsgexec.o(i.msgexec_put_message)
    osKernelInitialize                       0x08003e61   Thumb Code    30  rt_cmsis.o(i.osKernelInitialize)
    osKernelStart                            0x08003e85   Thumb Code    98  rt_cmsis.o(i.osKernelStart)
    osMailCAlloc                             0x08003ef1   Thumb Code    44  rt_cmsis.o(i.osMailCAlloc)
    osMailCreate                             0x08003f21   Thumb Code    36  rt_cmsis.o(i.osMailCreate)
    osMailFree                               0x08003f4d   Thumb Code    22  rt_cmsis.o(i.osMailFree)
    osMailGet                                0x08003f69   Thumb Code    22  rt_cmsis.o(i.osMailGet)
    osMailPut                                0x08003f7f   Thumb Code    20  rt_cmsis.o(i.osMailPut)
    osMessageGet                             0x08003f95   Thumb Code    18  rt_cmsis.o(i.osMessageGet)
    osMessagePut                             0x08003fad   Thumb Code    18  rt_cmsis.o(i.osMessagePut)
    osMutexCreate                            0x08003fc5   Thumb Code    36  rt_cmsis.o(i.osMutexCreate)
    osMutexRelease                           0x08003ff1   Thumb Code    18  rt_cmsis.o(i.osMutexRelease)
    osMutexWait                              0x08004009   Thumb Code    18  rt_cmsis.o(i.osMutexWait)
    osThreadCreate                           0x08004021   Thumb Code    36  rt_cmsis.o(i.osThreadCreate)
    osThreadExit                             0x0800404d   Thumb Code    14  rt_cmsis.o(i.osThreadExit)
    osTimerCall                              0x08004065   Thumb Code     8  rt_cmsis.o(i.osTimerCall)
    osTimerCreate                            0x08004071   Thumb Code    36  rt_cmsis.o(i.osTimerCreate)
    osTimerDelete                            0x0800409d   Thumb Code    18  rt_cmsis.o(i.osTimerDelete)
    osTimerStart                             0x080040b5   Thumb Code    18  rt_cmsis.o(i.osTimerStart)
    osTimerThread                            0x080040cd   Thumb Code    38  rt_cmsis.o(i.osTimerThread)
    os_error                                 0x080040f9   Thumb Code     2  rtx_conf_cm.o(i.os_error)
    os_idle_demon                            0x080040fb   Thumb Code     2  rtx_conf_cm.o(i.os_idle_demon)
    os_tick_init                             0x080040fd   Thumb Code    32  rt_system.o(i.os_tick_init)
    os_tick_irqack                           0x08004125   Thumb Code     2  rt_system.o(i.os_tick_irqack)
    ostimer_callback                         0x08004127   Thumb Code    46  vmsgexec.o(i.ostimer_callback)
    rt_alloc_box                             0x08004181   Thumb Code    26  rt_membox.o(i.rt_alloc_box)
    rt_alloc_mem                             0x0800419b   Thumb Code    62  rt_memory.o(i.rt_alloc_mem)
    rt_block                                 0x080041d9   Thumb Code    48  rt_task.o(i.rt_block)
    rt_chk_robin                             0x08004211   Thumb Code    60  rt_robin.o(i.rt_chk_robin)
    rt_dec_dly                               0x08004271   Thumb Code   102  rt_list.o(i.rt_dec_dly)
    rt_dispatch                              0x080042e1   Thumb Code    60  rt_task.o(i.rt_dispatch)
    rt_evt_psh                               0x08004325   Thumb Code    76  rt_event.o(i.rt_evt_psh)
    rt_free_box                              0x08004375   Thumb Code    44  rt_membox.o(i.rt_free_box)
    rt_free_mem                              0x080043a1   Thumb Code    40  rt_memory.o(i.rt_free_mem)
    rt_get_first                             0x080043c9   Thumb Code    40  rt_list.o(i.rt_get_first)
    rt_init_mem                              0x08004441   Thumb Code    26  rt_memory.o(i.rt_init_mem)
    rt_init_robin                            0x0800445d   Thumb Code    14  rt_robin.o(i.rt_init_robin)
    rt_init_stack                            0x08004475   Thumb Code   118  hal_cm.o(i.rt_init_stack)
    rt_mbx_check                             0x080044f5   Thumb Code     8  rt_mailbox.o(i.rt_mbx_check)
    rt_mbx_init                              0x080044fd   Thumb Code    26  rt_mailbox.o(i.rt_mbx_init)
    rt_mbx_psh                               0x08004519   Thumb Code   236  rt_mailbox.o(i.rt_mbx_psh)
    rt_mbx_send                              0x08004609   Thumb Code   148  rt_mailbox.o(i.rt_mbx_send)
    rt_mbx_wait                              0x080046a1   Thumb Code   174  rt_mailbox.o(i.rt_mbx_wait)
    rt_mut_init                              0x08004799   Thumb Code    16  rt_mutex.o(i.rt_mut_init)
    rt_mut_release                           0x080047a9   Thumb Code   208  rt_mutex.o(i.rt_mut_release)
    rt_mut_wait                              0x08004881   Thumb Code   114  rt_mutex.o(i.rt_mut_wait)
    rt_pop_req                               0x080048f9   Thumb Code   112  rt_system.o(i.rt_pop_req)
    rt_psh_req                               0x08004975   Thumb Code    22  rt_system.o(i.rt_psh_req)
    rt_psq_enq                               0x08004995   Thumb Code    88  rt_list.o(i.rt_psq_enq)
    rt_put_dly                               0x080049f1   Thumb Code    68  rt_list.o(i.rt_put_dly)
    rt_put_prio                              0x08004a39   Thumb Code    54  rt_list.o(i.rt_put_prio)
    rt_put_rdy_first                         0x08004a71   Thumb Code    14  rt_list.o(i.rt_put_rdy_first)
    rt_resort_prio                           0x08004a85   Thumb Code    46  rt_list.o(i.rt_resort_prio)
    rt_ret_val                               0x08004ab9   Thumb Code     6  hal_cm.o(i.rt_ret_val)
    rt_ret_val2                              0x08004abf   Thumb Code     8  hal_cm.o(i.rt_ret_val2)
    rt_rmv_dly                               0x08004ac7   Thumb Code    40  rt_list.o(i.rt_rmv_dly)
    rt_rmv_list                              0x08004af1   Thumb Code    44  rt_list.o(i.rt_rmv_list)
    rt_sem_psh                               0x08004b21   Thumb Code    48  rt_semaphore.o(i.rt_sem_psh)
    rt_stk_check                             0x08004b55   Thumb Code    28  rt_system.o(i.rt_stk_check)
    rt_switch_req                            0x08004b79   Thumb Code    30  rt_task.o(i.rt_switch_req)
    rt_sys_init                              0x08004ba1   Thumb Code   138  rt_task.o(i.rt_sys_init)
    rt_sys_start                             0x08004c6d   Thumb Code   110  rt_task.o(i.rt_sys_start)
    rt_systick                               0x08004ce5   Thumb Code    50  rt_system.o(i.rt_systick)
    rt_tsk_create                            0x08004da9   Thumb Code   118  rt_task.o(i.rt_tsk_create)
    rt_tsk_delete                            0x08004e31   Thumb Code   352  rt_task.o(i.rt_tsk_delete)
    rt_tsk_prio                              0x08004fad   Thumb Code   108  rt_task.o(i.rt_tsk_prio)
    rt_tsk_self                              0x08005029   Thumb Code    12  rt_task.o(i.rt_tsk_self)
    svcKernelInitialize                      0x08005051   Thumb Code    80  rt_cmsis.o(i.svcKernelInitialize)
    svcKernelStart                           0x080050c1   Thumb Code    62  rt_cmsis.o(i.svcKernelStart)
    svcMailCreate                            0x08005109   Thumb Code    66  rt_cmsis.o(i.svcMailCreate)
    svcMessageCreate                         0x0800514b   Thumb Code    36  rt_cmsis.o(i.svcMessageCreate)
    svcMessageGet                            0x0800516f   Thumb Code    58  rt_cmsis.o(i.svcMessageGet)
    svcMessagePut                            0x080051a9   Thumb Code    54  rt_cmsis.o(i.svcMessagePut)
    svcMutexCreate                           0x080051df   Thumb Code    28  rt_cmsis.o(i.svcMutexCreate)
    svcMutexRelease                          0x080051fb   Thumb Code    34  rt_cmsis.o(i.svcMutexRelease)
    svcMutexWait                             0x0800521d   Thumb Code    58  rt_cmsis.o(i.svcMutexWait)
    svcThreadCreate                          0x08005259   Thumb Code    96  rt_cmsis.o(i.svcThreadCreate)
    svcThreadGetId                           0x080052c5   Thumb Code    22  rt_cmsis.o(i.svcThreadGetId)
    svcThreadTerminate                       0x080052e1   Thumb Code    50  rt_cmsis.o(i.svcThreadTerminate)
    svcTimerCall                             0x08005319   Thumb Code    24  rt_cmsis.o(i.svcTimerCall)
    svcTimerCreate                           0x08005331   Thumb Code    52  rt_cmsis.o(i.svcTimerCreate)
    svcTimerDelete                           0x08005369   Thumb Code    40  rt_cmsis.o(i.svcTimerDelete)
    svcTimerStart                            0x08005391   Thumb Code    96  rt_cmsis.o(i.svcTimerStart)
    sysMailAlloc                             0x080053f5   Thumb Code    84  rt_cmsis.o(i.sysMailAlloc)
    sysMailFree                              0x0800544d   Thumb Code    96  rt_cmsis.o(i.sysMailFree)
    sysTimerTick                             0x080054ad   Thumb Code    84  rt_cmsis.o(i.sysTimerTick)
    tlsf_free                                0x08005509   Thumb Code    60  tlsf.o(i.tlsf_free)
    tlsf_malloc                              0x08005549   Thumb Code   100  tlsf.o(i.tlsf_malloc)
    vwm_clear_wnd_timer                      0x080055cd   Thumb Code    22  vmsgexec.o(i.vwm_clear_wnd_timer)
    vwm_create_timer                         0x080055e5   Thumb Code   110  vmsgexec.o(i.vwm_create_timer)
    vwm_delete_timer                         0x0800565d   Thumb Code    88  vmsgexec.o(i.vwm_delete_timer)
    vwm_find_timer_by_wnd                    0x080056b9   Thumb Code    20  vmsgexec.o(i.vwm_find_timer_by_wnd)
    vwm_send_message                         0x080056d1   Thumb Code    48  vmsgexec.o(i.vwm_send_message)
    vwm_start_timer                          0x08005701   Thumb Code    14  vmsgexec.o(i.vwm_start_timer)
    vwm_timer_init                           0x08005711   Thumb Code    12  vmsgexec.o(i.vwm_timer_init)
    AHBPrescTable                            0x08005737   Data          16  system_stm32f1xx.o(.constdata)
    APBPrescTable                            0x08005747   Data           8  system_stm32f1xx.o(.constdata)
    os_mailQ_def_msgexec_queue               0x08005750   Data          12  vmsgexec.o(.constdata)
    key_map                                  0x0800575c   Data          24  app.o(.constdata)
    os_mutex_def_DYNMemMutex                 0x08005790   Data           4  tlsf.o(.constdata)
    os_maxtaskrun                            0x08005c9a   Data           2  rtx_conf_cm.o(.constdata)
    os_stackinfo                             0x08005c9c   Data           4  rtx_conf_cm.o(.constdata)
    os_rrobin                                0x08005ca0   Data           4  rtx_conf_cm.o(.constdata)
    os_trv                                   0x08005ca4   Data           4  rtx_conf_cm.o(.constdata)
    os_flags                                 0x08005ca8   Data           1  rtx_conf_cm.o(.constdata)
    CMSIS_RTOS_API_Version                   0x08005cac   Data           4  rtx_conf_cm.o(.constdata)
    CMSIS_RTOS_RTX_Version                   0x08005cb0   Data           4  rtx_conf_cm.o(.constdata)
    os_clockrate                             0x08005cb4   Data           4  rtx_conf_cm.o(.constdata)
    os_timernum                              0x08005cb8   Data           4  rtx_conf_cm.o(.constdata)
    os_thread_def_main                       0x08005cbc   Data          16  rtx_conf_cm.o(.constdata)
    mp_tcb_size                              0x08005ccc   Data           2  rtx_conf_cm.o(.constdata)
    mp_stk_size                              0x08005cd0   Data           4  rtx_conf_cm.o(.constdata)
    os_stack_sz                              0x08005cd4   Data           4  rtx_conf_cm.o(.constdata)
    os_fifo_size                             0x08005cd8   Data           1  rtx_conf_cm.o(.constdata)
    os_thread_def_osTimerThread              0x08005cdc   Data          16  rtx_conf_cm.o(.constdata)
    os_messageQ_def_osTimerMessageQ          0x08005cec   Data           8  rtx_conf_cm.o(.constdata)
    mp_tmr_size                              0x08005cf4   Data           2  rtx_conf_cm.o(.constdata)
    Region$$Table$$Base                      0x08005d40   Number         0  anon$$obj.o(Region$$Table)
    Region$$Table$$Limit                     0x08005d60   Number         0  anon$$obj.o(Region$$Table)
    uwTickFreq                               0x20000000   Data           1  stm32f1xx_hal.o(.data)
    uwTickPrio                               0x20000004   Data           4  stm32f1xx_hal.o(.data)
    uwTick                                   0x20000008   Data           4  stm32f1xx_hal.o(.data)
    SystemCoreClock                          0x2000000c   Data           4  system_stm32f1xx.o(.data)
    os_mailQ_p_msgexec_queue                 0x20000010   Data           8  vmsgexec.o(.data)
    msgexec_queue_id                         0x20000018   Data           4  vmsgexec.o(.data)
    g_msg_exec                               0x2000001c   Data           8  vmsgexec.o(.data)
    gVTimer                                  0x20000024   Data           8  vmsgexec.o(.data)
    mp                                       0x20000030   Data           4  tlsf.o(.data)
    g_mp                                     0x20000034   Data           4  tlsf.o(.data)
    elog_assert_hook                         0x20000038   Data           4  elog.o(.data)
    m_tmr                                    0x2000006c   Data           4  rtx_conf_cm.o(.data)
    osThreadId_osTimerThread                 0x20000070   Data           4  rtx_conf_cm.o(.data)
    osMessageQId_osTimerMessageQ             0x20000074   Data           4  rtx_conf_cm.o(.data)
    os_initialized                           0x20000078   Data           1  rt_cmsis.o(.data)
    os_running                               0x20000079   Data           1  rt_cmsis.o(.data)
    os_timer_head                            0x2000007c   Data           4  rt_cmsis.o(.data)
    os_time                                  0x20000080   Data           4  rt_time.o(.data)
    os_tsk                                   0x20000084   Data           8  rt_task.o(.data)
    os_tick_irqn                             0x20000090   Data           4  rt_system.o(.data)
    dbg_msg                                  0x20000094   Data           1  hal_cm.o(.data)
    os_robin                                 0x20000098   Data           8  rt_robin.o(.data)
    __stdout                                 0x200000a0   Data           4  stdout.o(.data)
    htim4                                    0x200000a4   Data          72  main.o(.bss)
    huart1                                   0x200000ec   Data          72  main.o(.bss)
    huart3                                   0x20000134   Data          72  main.o(.bss)
    g_keyscan                                0x2000017c   Data          12  vkey.o(.bss)
    os_mailQ_q_msgexec_queue                 0x20000188   Data         272  vmsgexec.o(.bss)
    os_mailQ_m_msgexec_queue                 0x20000298   Data        1292  vmsgexec.o(.bss)
    g_app                                    0x200007a4   Data          16  app.o(.bss)
    os_mutex_cb_DYNMemMutex                  0x200007b4   Data          16  tlsf.o(.bss)
    os_messageQ_q_osTimerMessageQ            0x200070bc   Data          80  rtx_conf_cm.o(.bss)
    mp_tcb                                   0x2000710c   Data         324  rtx_conf_cm.o(.bss)
    mp_stk                                   0x20007250   Data        5136  rtx_conf_cm.o(.bss)
    os_stack_mem                             0x20008660   Data        1568  rtx_conf_cm.o(.bss)
    os_fifo                                  0x20008c80   Data         516  rtx_conf_cm.o(.bss)
    os_active_TCB                            0x20008e84   Data          24  rtx_conf_cm.o(.bss)
    os_idle_TCB                              0x20008e9c   Data          52  rt_task.o(.bss)
    os_rdy                                   0x20008ed0   Data          24  rt_list.o(.bss)
    os_dly                                   0x20008ee8   Data          24  rt_list.o(.bss)
    __initial_sp                             0x20009300   Data           0  startup_stm32f103xe.o(STACK)



==============================================================================

Memory Map of the image

  Image Entry point : 0x08000131

  Load Region LR_IROM1 (Base: 0x08000000, Size: 0x00005e04, Max: 0x00080000, ABSOLUTE)

    Execution Region ER_IROM1 (Exec base: 0x08000000, Load base: 0x08000000, Size: 0x00005d60, Max: 0x00080000, ABSOLUTE)

    Exec Addr    Load Addr    Size         Type   Attr      Idx    E Section Name        Object

    0x08000000   0x08000000   0x00000130   Data   RO            3    RESET               startup_stm32f103xe.o
    0x08000130   0x08000130   0x00000000   Code   RO         5034  * .ARM.Collect$$$$00000000  mc_w.l(entry.o)
    0x08000130   0x08000130   0x00000004   Code   RO         5320    .ARM.Collect$$$$00000001  mc_w.l(entry2.o)
    0x08000134   0x08000134   0x00000004   Code   RO         5323    .ARM.Collect$$$$00000004  mc_w.l(entry5.o)
    0x08000138   0x08000138   0x00000000   Code   RO         5325    .ARM.Collect$$$$00000008  mc_w.l(entry7b.o)
    0x08000138   0x08000138   0x00000000   Code   RO         5327    .ARM.Collect$$$$0000000A  mc_w.l(entry8b.o)
    0x08000138   0x08000138   0x00000004   Code   RO         5333    .ARM.Collect$$$$0000000E  mc_w.l(entry12b.o)
    0x0800013c   0x0800013c   0x00000000   Code   RO         5328    .ARM.Collect$$$$0000000F  mc_w.l(entry10a.o)
    0x0800013c   0x0800013c   0x00000000   Code   RO         5330    .ARM.Collect$$$$00000011  mc_w.l(entry11a.o)
    0x0800013c   0x0800013c   0x00000018   Code   RO         3765    .ARM.Collect$$$$000000FF  rtx_conf_cm.o
    0x08000154   0x08000154   0x00000004   Code   RO         5321    .ARM.Collect$$$$00002712  mc_w.l(entry2.o)
    0x08000158   0x08000158   0x00000130   Code   RO         5021    .emb_text           RTX_CM3.lib(hal_cm3.o)
    0x08000288   0x08000288   0x00000024   Code   RO            4    .text               startup_stm32f103xe.o
    0x080002ac   0x080002ac   0x00000062   Code   RO         5037    .text               mc_w.l(uldiv.o)
    0x0800030e   0x0800030e   0x00000020   Code   RO         5039    .text               mc_w.l(llushr.o)
    0x0800032e   0x0800032e   0x00000024   Code   RO         5043    .text               mc_w.l(memseta.o)
    0x08000352   0x08000352   0x00000024   Code   RO         5045    .text               mc_w.l(strstr.o)
    0x08000376   0x08000376   0x0000000e   Code   RO         5051    .text               mc_w.l(strlen.o)
    0x08000384   0x08000384   0x0000001e   Code   RO         5055    .text               mc_w.l(strncmp.o)
    0x080003a2   0x080003a2   0x0000002c   Code   RO         5335    .text               mc_w.l(uidiv.o)
    0x080003ce   0x080003ce   0x0000001e   Code   RO         5337    .text               mc_w.l(llshl.o)
    0x080003ec   0x080003ec   0x00000000   Code   RO         5339    .text               mc_w.l(iusefp.o)
    0x080003ec   0x080003ec   0x0000014e   Code   RO         5340    .text               mf_w.l(dadd.o)
    0x0800053a   0x0800053a   0x000000e4   Code   RO         5342    .text               mf_w.l(dmul.o)
    0x0800061e   0x0800061e   0x000000de   Code   RO         5344    .text               mf_w.l(ddiv.o)
    0x080006fc   0x080006fc   0x00000030   Code   RO         5346    .text               mf_w.l(dfixul.o)
    0x0800072c   0x0800072c   0x00000030   Code   RO         5348    .text               mf_w.l(cdrcmple.o)
    0x0800075c   0x0800075c   0x00000024   Code   RO         5350    .text               mc_w.l(init.o)
    0x08000780   0x08000780   0x00000024   Code   RO         5352    .text               mc_w.l(llsshr.o)
    0x080007a4   0x080007a4   0x000000ba   Code   RO         5354    .text               mf_w.l(depilogue.o)
    0x0800085e   0x0800085e   0x00000002   PAD
    0x08000860   0x08000860   0x00000004   Code   RO         5031    SVC_TABLE           RTX_CM3.lib(svc_table.o)
    0x08000864   0x08000864   0x00000002   Code   RO          193    i.BusFault_Handler  stm32f1xx_it.o
    0x08000866   0x08000866   0x00000002   PAD
    0x08000868   0x08000868   0x0000005c   Code   RO         3190    i.DHT11_Check       dht11.o
    0x080008c4   0x080008c4   0x00000020   Code   RO         3191    i.DHT11_IO_IN       dht11.o
    0x080008e4   0x080008e4   0x00000038   Code   RO         3192    i.DHT11_IO_OUT      dht11.o
    0x0800091c   0x0800091c   0x00000034   Code   RO         3193    i.DHT11_RST         dht11.o
    0x08000950   0x08000950   0x00000058   Code   RO         3194    i.DHT11_Read_Bit    dht11.o
    0x080009a8   0x080009a8   0x0000001a   Code   RO         3195    i.DHT11_Read_Byte   dht11.o
    0x080009c2   0x080009c2   0x00000050   Code   RO         3196    i.DHT11_Read_Data   dht11.o
    0x08000a12   0x08000a12   0x00000002   Code   RO          194    i.DebugMon_Handler  stm32f1xx_it.o
    0x08000a14   0x08000a14   0x00000028   Code   RO         3197    i.Delay_us          dht11.o
    0x08000a3c   0x08000a3c   0x00000046   Code   RO         1701    i.HAL_DMA_Abort     stm32f1xx_hal_dma.o
    0x08000a82   0x08000a82   0x00000002   PAD
    0x08000a84   0x08000a84   0x00000130   Code   RO         1702    i.HAL_DMA_Abort_IT  stm32f1xx_hal_dma.o
    0x08000bb4   0x08000bb4   0x00000024   Code   RO         1327    i.HAL_Delay         stm32f1xx_hal.o
    0x08000bd8   0x08000bd8   0x000001f8   Code   RO         1637    i.HAL_GPIO_Init     stm32f1xx_hal_gpio.o
    0x08000dd0   0x08000dd0   0x0000000a   Code   RO         1639    i.HAL_GPIO_ReadPin  stm32f1xx_hal_gpio.o
    0x08000dda   0x08000dda   0x00000010   Code   RO         1640    i.HAL_GPIO_TogglePin  stm32f1xx_hal_gpio.o
    0x08000dea   0x08000dea   0x0000000a   Code   RO         1641    i.HAL_GPIO_WritePin  stm32f1xx_hal_gpio.o
    0x08000df4   0x08000df4   0x0000000c   Code   RO         2728    i.HAL_GetTick       os_port.o
    0x08000e00   0x08000e00   0x00000024   Code   RO         1338    i.HAL_Init          stm32f1xx_hal.o
    0x08000e24   0x08000e24   0x00000040   Code   RO         1339    i.HAL_InitTick      stm32f1xx_hal.o
    0x08000e64   0x08000e64   0x00000048   Code   RO          263    i.HAL_MspInit       stm32f1xx_hal_msp.o
    0x08000eac   0x08000eac   0x0000001a   Code   RO         1797    i.HAL_NVIC_EnableIRQ  stm32f1xx_hal_cortex.o
    0x08000ec6   0x08000ec6   0x00000002   PAD
    0x08000ec8   0x08000ec8   0x00000040   Code   RO         1803    i.HAL_NVIC_SetPriority  stm32f1xx_hal_cortex.o
    0x08000f08   0x08000f08   0x00000024   Code   RO         1804    i.HAL_NVIC_SetPriorityGrouping  stm32f1xx_hal_cortex.o
    0x08000f2c   0x08000f2c   0x0000012c   Code   RO         1495    i.HAL_RCC_ClockConfig  stm32f1xx_hal_rcc.o
    0x08001058   0x08001058   0x00000020   Code   RO         1502    i.HAL_RCC_GetPCLK1Freq  stm32f1xx_hal_rcc.o
    0x08001078   0x08001078   0x00000020   Code   RO         1503    i.HAL_RCC_GetPCLK2Freq  stm32f1xx_hal_rcc.o
    0x08001098   0x08001098   0x0000004c   Code   RO         1504    i.HAL_RCC_GetSysClockFreq  stm32f1xx_hal_rcc.o
    0x080010e4   0x080010e4   0x00000320   Code   RO         1507    i.HAL_RCC_OscConfig  stm32f1xx_hal_rcc.o
    0x08001404   0x08001404   0x00000028   Code   RO         1808    i.HAL_SYSTICK_Config  stm32f1xx_hal_cortex.o
    0x0800142c   0x0800142c   0x0000007c   Code   RO         1072    i.HAL_TIMEx_MasterConfigSynchronization  stm32f1xx_hal_tim_ex.o
    0x080014a8   0x080014a8   0x0000005a   Code   RO          349    i.HAL_TIM_Base_Init  stm32f1xx_hal_tim.o
    0x08001502   0x08001502   0x00000002   PAD
    0x08001504   0x08001504   0x00000028   Code   RO          265    i.HAL_TIM_Base_MspInit  stm32f1xx_hal_msp.o
    0x0800152c   0x0800152c   0x00000064   Code   RO          352    i.HAL_TIM_Base_Start  stm32f1xx_hal_tim.o
    0x08001590   0x08001590   0x00000026   Code   RO          355    i.HAL_TIM_Base_Stop  stm32f1xx_hal_tim.o
    0x080015b6   0x080015b6   0x000000dc   Code   RO          358    i.HAL_TIM_ConfigClockSource  stm32f1xx_hal_tim.o
    0x08001692   0x08001692   0x00000002   Code   RO         2309    i.HAL_UARTEx_RxEventCallback  stm32f1xx_hal_uart.o
    0x08001694   0x08001694   0x00000002   Code   RO         2323    i.HAL_UART_ErrorCallback  stm32f1xx_hal_uart.o
    0x08001696   0x08001696   0x00000002   PAD
    0x08001698   0x08001698   0x0000026c   Code   RO         2326    i.HAL_UART_IRQHandler  stm32f1xx_hal_uart.o
    0x08001904   0x08001904   0x00000064   Code   RO         2327    i.HAL_UART_Init     stm32f1xx_hal_uart.o
    0x08001968   0x08001968   0x000000dc   Code   RO          267    i.HAL_UART_MspInit  stm32f1xx_hal_msp.o
    0x08001a44   0x08001a44   0x00000002   Code   RO         2333    i.HAL_UART_RxCpltCallback  stm32f1xx_hal_uart.o
    0x08001a46   0x08001a46   0x0000009a   Code   RO         2335    i.HAL_UART_Transmit  stm32f1xx_hal_uart.o
    0x08001ae0   0x08001ae0   0x00000002   Code   RO         2338    i.HAL_UART_TxCpltCallback  stm32f1xx_hal_uart.o
    0x08001ae2   0x08001ae2   0x00000002   Code   RO          195    i.HardFault_Handler  stm32f1xx_it.o
    0x08001ae4   0x08001ae4   0x0000002c   Code   RO         3297    i.MAPPING_INSERT    tlsf.o
    0x08001b10   0x08001b10   0x000000a8   Code   RO           14    i.MX_GPIO_Init      main.o
    0x08001bb8   0x08001bb8   0x00000068   Code   RO           15    i.MX_TIM4_Init      main.o
    0x08001c20   0x08001c20   0x00000002   Code   RO          196    i.MemManage_Handler  stm32f1xx_it.o
    0x08001c22   0x08001c22   0x00000002   Code   RO          197    i.NMI_Handler       stm32f1xx_it.o
    0x08001c24   0x08001c24   0x0000005e   Code   RO           16    i.SystemClock_Config  main.o
    0x08001c82   0x08001c82   0x00000002   Code   RO         2661    i.SystemInit        system_stm32f1xx.o
    0x08001c84   0x08001c84   0x0000008c   Code   RO          442    i.TIM_Base_SetConfig  stm32f1xx_hal_tim.o
    0x08001d10   0x08001d10   0x00000014   Code   RO          453    i.TIM_ETR_SetConfig  stm32f1xx_hal_tim.o
    0x08001d24   0x08001d24   0x00000010   Code   RO          454    i.TIM_ITRx_SetConfig  stm32f1xx_hal_tim.o
    0x08001d34   0x08001d34   0x00000022   Code   RO          460    i.TIM_TI1_ConfigInputStage  stm32f1xx_hal_tim.o
    0x08001d56   0x08001d56   0x00000024   Code   RO          462    i.TIM_TI2_ConfigInputStage  stm32f1xx_hal_tim.o
    0x08001d7a   0x08001d7a   0x00000010   Code   RO         2340    i.UART_DMAAbortOnError  stm32f1xx_hal_uart.o
    0x08001d8a   0x08001d8a   0x0000004e   Code   RO         2350    i.UART_EndRxTransfer  stm32f1xx_hal_uart.o
    0x08001dd8   0x08001dd8   0x000000c2   Code   RO         2352    i.UART_Receive_IT   stm32f1xx_hal_uart.o
    0x08001e9a   0x08001e9a   0x00000002   PAD
    0x08001e9c   0x08001e9c   0x000000b8   Code   RO         2353    i.UART_SetConfig    stm32f1xx_hal_uart.o
    0x08001f54   0x08001f54   0x00000078   Code   RO         2356    i.UART_WaitOnFlagUntilTimeout  stm32f1xx_hal_uart.o
    0x08001fcc   0x08001fcc   0x0000000c   Code   RO          198    i.USART1_IRQHandler  stm32f1xx_it.o
    0x08001fd8   0x08001fd8   0x0000000c   Code   RO          199    i.USART3_IRQHandler  stm32f1xx_it.o
    0x08001fe4   0x08001fe4   0x00000002   Code   RO          200    i.UsageFault_Handler  stm32f1xx_it.o
    0x08001fe6   0x08001fe6   0x00000002   PAD
    0x08001fe8   0x08001fe8   0x00000020   Code   RO         5292    i.__0printf         mc_w.l(printfa.o)
    0x08002008   0x08002008   0x00000034   Code   RO         5293    i.__0snprintf       mc_w.l(printfa.o)
    0x0800203c   0x0800203c   0x00000034   Code   RO         5297    i.__0vsnprintf      mc_w.l(printfa.o)
    0x08002070   0x08002070   0x00000020   Code   RO         1810    i.__NVIC_SetPriority  stm32f1xx_hal_cortex.o
    0x08002090   0x08002090   0x0000000e   Code   RO         5358    i.__scatterload_copy  mc_w.l(handlers.o)
    0x0800209e   0x0800209e   0x00000002   Code   RO         5359    i.__scatterload_null  mc_w.l(handlers.o)
    0x080020a0   0x080020a0   0x0000000e   Code   RO         5360    i.__scatterload_zeroinit  mc_w.l(handlers.o)
    0x080020ae   0x080020ae   0x00000002   PAD
    0x080020b0   0x080020b0   0x00000184   Code   RO         5299    i._fp_digits        mc_w.l(printfa.o)
    0x08002234   0x08002234   0x00000046   Code   RO         4899    i._init_box         RTX_CM3.lib(rt_membox.o)
    0x0800227a   0x0800227a   0x00000002   PAD
    0x0800227c   0x0800227c   0x000006b4   Code   RO         5300    i._printf_core      mc_w.l(printfa.o)
    0x08002930   0x08002930   0x00000024   Code   RO         5301    i._printf_post_padding  mc_w.l(printfa.o)
    0x08002954   0x08002954   0x0000002e   Code   RO         5302    i._printf_pre_padding  mc_w.l(printfa.o)
    0x08002982   0x08002982   0x00000016   Code   RO         5303    i._snputc           mc_w.l(printfa.o)
    0x08002998   0x08002998   0x00000218   Code   RO         3260    i.app_dlgcallback   app.o
    0x08002bb0   0x08002bb0   0x000000c4   Code   RO         3261    i.app_init          app.o
    0x08002c74   0x08002c74   0x00000018   Code   RO         3300    i.clear_bit         tlsf.o
    0x08002c8c   0x08002c8c   0x00000030   Code   RO         4952    i.dbg_init          RTX_CM3.lib(hal_cm.o)
    0x08002cbc   0x08002cbc   0x00000020   Code   RO         4953    i.dbg_task_notify   RTX_CM3.lib(hal_cm.o)
    0x08002cdc   0x08002cdc   0x00000010   Code   RO         4954    i.dbg_task_switch   RTX_CM3.lib(hal_cm.o)
    0x08002cec   0x08002cec   0x00000010   Code   RO         3302    i.dm_init           tlsf.o
    0x08002cfc   0x08002cfc   0x000000ec   Code   RO         3449    i.elog_get_filter_tag_lvl  elog.o
    0x08002de8   0x08002de8   0x00000068   Code   RO         3453    i.elog_init         elog.o
    0x08002e50   0x08002e50   0x00000370   Code   RO         3454    i.elog_output       elog.o
    0x080031c0   0x080031c0   0x00000020   Code   RO         3455    i.elog_output_lock  elog.o
    0x080031e0   0x080031e0   0x0000002c   Code   RO         3456    i.elog_output_lock_enabled  elog.o
    0x0800320c   0x0800320c   0x00000020   Code   RO         3457    i.elog_output_unlock  elog.o
    0x0800322c   0x0800322c   0x00000008   Code   RO         3649    i.elog_port_get_p_info  elog_port.o
    0x08003234   0x08003234   0x00000008   Code   RO         3650    i.elog_port_get_t_info  elog_port.o
    0x0800323c   0x0800323c   0x00000002   Code   RO         3651    i.elog_port_get_time  elog_port.o
    0x0800323e   0x0800323e   0x00000004   Code   RO         3652    i.elog_port_init    elog_port.o
    0x08003242   0x08003242   0x00000002   PAD
    0x08003244   0x08003244   0x00000010   Code   RO         3653    i.elog_port_output  elog_port.o
    0x08003254   0x08003254   0x00000002   Code   RO         3654    i.elog_port_output_lock  elog_port.o
    0x08003256   0x08003256   0x00000002   Code   RO         3655    i.elog_port_output_unlock  elog_port.o
    0x08003258   0x08003258   0x000000b0   Code   RO         3461    i.elog_set_filter_lvl  elog.o
    0x08003308   0x08003308   0x000000b8   Code   RO         3464    i.elog_set_fmt      elog.o
    0x080033c0   0x080033c0   0x00000088   Code   RO         3467    i.elog_start        elog.o
    0x08003448   0x08003448   0x000000f0   Code   RO         3625    i.elog_strcpy       elog_utils.o
    0x08003538   0x08003538   0x00000018   Code   RO           17    i.fputc             main.o
    0x08003550   0x08003550   0x00000180   Code   RO         3303    i.free_ex           tlsf.o
    0x080036d0   0x080036d0   0x000000c0   Code   RO         3469    i.get_fmt_enabled   elog.o
    0x08003790   0x08003790   0x00000108   Code   RO         3306    i.init_memory_pool  tlsf.o
    0x08003898   0x08003898   0x0000002a   Code   RO         3826    i.isrMessageGet     RTX_CM3.lib(rt_cmsis.o)
    0x080038c2   0x080038c2   0x0000002c   Code   RO         3827    i.isrMessagePut     RTX_CM3.lib(rt_cmsis.o)
    0x080038ee   0x080038ee   0x00000002   PAD
    0x080038f0   0x080038f0   0x00000056   Code   RO         4778    i.isr_mbx_receive   RTX_CM3.lib(rt_mailbox.o)
    0x08003946   0x08003946   0x0000000e   Code   RO         4779    i.isr_mbx_send      RTX_CM3.lib(rt_mailbox.o)
    0x08003954   0x08003954   0x00000018   Code   RO         2930    i.key_scan__getkeystate  vkey.o
    0x0800396c   0x0800396c   0x00000074   Code   RO         2931    i.key_scan__init    vkey.o
    0x080039e0   0x080039e0   0x00000058   Code   RO         2932    i.key_scan__scan    vkey.o
    0x08003a38   0x08003a38   0x00000034   Code   RO         3307    i.ls_bit            tlsf.o
    0x08003a6c   0x08003a6c   0x00000108   Code   RO           18    i.main              main.o
    0x08003b74   0x08003b74   0x00000180   Code   RO         3308    i.malloc_ex         tlsf.o
    0x08003cf4   0x08003cf4   0x00000030   Code   RO         3309    i.ms_bit            tlsf.o
    0x08003d24   0x08003d24   0x00000010   Code   RO         3035    i.msgexec_alloc_message  vmsgexec.o
    0x08003d34   0x08003d34   0x0000005c   Code   RO         3036    i.msgexec_create_module  vmsgexec.o
    0x08003d90   0x08003d90   0x00000040   Code   RO         3037    i.msgexec_exec      vmsgexec.o
    0x08003dd0   0x08003dd0   0x0000005c   Code   RO         3038    i.msgexec_free_module  vmsgexec.o
    0x08003e2c   0x08003e2c   0x00000020   Code   RO         3041    i.msgexec_init      vmsgexec.o
    0x08003e4c   0x08003e4c   0x00000014   Code   RO         3042    i.msgexec_put_message  vmsgexec.o
    0x08003e60   0x08003e60   0x00000024   Code   RO         3831    i.osKernelInitialize  RTX_CM3.lib(rt_cmsis.o)
    0x08003e84   0x08003e84   0x0000006c   Code   RO         3833    i.osKernelStart     RTX_CM3.lib(rt_cmsis.o)
    0x08003ef0   0x08003ef0   0x00000030   Code   RO         3836    i.osMailCAlloc      RTX_CM3.lib(rt_cmsis.o)
    0x08003f20   0x08003f20   0x0000002c   Code   RO         3837    i.osMailCreate      RTX_CM3.lib(rt_cmsis.o)
    0x08003f4c   0x08003f4c   0x0000001c   Code   RO         3838    i.osMailFree        RTX_CM3.lib(rt_cmsis.o)
    0x08003f68   0x08003f68   0x00000016   Code   RO         3839    i.osMailGet         RTX_CM3.lib(rt_cmsis.o)
    0x08003f7e   0x08003f7e   0x00000014   Code   RO         3840    i.osMailPut         RTX_CM3.lib(rt_cmsis.o)
    0x08003f92   0x08003f92   0x00000002   PAD
    0x08003f94   0x08003f94   0x00000018   Code   RO         3842    i.osMessageGet      RTX_CM3.lib(rt_cmsis.o)
    0x08003fac   0x08003fac   0x00000018   Code   RO         3843    i.osMessagePut      RTX_CM3.lib(rt_cmsis.o)
    0x08003fc4   0x08003fc4   0x0000002c   Code   RO         3844    i.osMutexCreate     RTX_CM3.lib(rt_cmsis.o)
    0x08003ff0   0x08003ff0   0x00000018   Code   RO         3846    i.osMutexRelease    RTX_CM3.lib(rt_cmsis.o)
    0x08004008   0x08004008   0x00000018   Code   RO         3847    i.osMutexWait       RTX_CM3.lib(rt_cmsis.o)
    0x08004020   0x08004020   0x0000002c   Code   RO         3859    i.osThreadCreate    RTX_CM3.lib(rt_cmsis.o)
    0x0800404c   0x0800404c   0x00000018   Code   RO         3860    i.osThreadExit      RTX_CM3.lib(rt_cmsis.o)
    0x08004064   0x08004064   0x0000000c   Code   RO         3866    i.osTimerCall       RTX_CM3.lib(rt_cmsis.o)
    0x08004070   0x08004070   0x0000002c   Code   RO         3867    i.osTimerCreate     RTX_CM3.lib(rt_cmsis.o)
    0x0800409c   0x0800409c   0x00000018   Code   RO         3868    i.osTimerDelete     RTX_CM3.lib(rt_cmsis.o)
    0x080040b4   0x080040b4   0x00000018   Code   RO         3869    i.osTimerStart      RTX_CM3.lib(rt_cmsis.o)
    0x080040cc   0x080040cc   0x0000002c   Code   RO         3871    i.osTimerThread     RTX_CM3.lib(rt_cmsis.o)
    0x080040f8   0x080040f8   0x00000002   Code   RO         3766    i.os_error          rtx_conf_cm.o
    0x080040fa   0x080040fa   0x00000002   Code   RO         3767    i.os_idle_demon     rtx_conf_cm.o
    0x080040fc   0x080040fc   0x00000028   Code   RO         4566    i.os_tick_init      RTX_CM3.lib(rt_system.o)
    0x08004124   0x08004124   0x00000002   Code   RO         4567    i.os_tick_irqack    RTX_CM3.lib(rt_system.o)
    0x08004126   0x08004126   0x0000002e   Code   RO         3043    i.ostimer_callback  vmsgexec.o
    0x08004154   0x08004154   0x0000002c   Code   RO         3310    i.process_area      tlsf.o
    0x08004180   0x08004180   0x0000001a   Code   RO         4900    i.rt_alloc_box      RTX_CM3.lib(rt_membox.o)
    0x0800419a   0x0800419a   0x0000003e   Code   RO         4928    i.rt_alloc_mem      RTX_CM3.lib(rt_memory.o)
    0x080041d8   0x080041d8   0x00000038   Code   RO         4481    i.rt_block          RTX_CM3.lib(rt_task.o)
    0x08004210   0x08004210   0x00000048   Code   RO         5000    i.rt_chk_robin      RTX_CM3.lib(rt_robin.o)
    0x08004258   0x08004258   0x00000018   Code   RO         3875    i.rt_clr_box        RTX_CM3.lib(rt_cmsis.o)
    0x08004270   0x08004270   0x00000070   Code   RO         4702    i.rt_dec_dly        RTX_CM3.lib(rt_list.o)
    0x080042e0   0x080042e0   0x00000044   Code   RO         4482    i.rt_dispatch       RTX_CM3.lib(rt_task.o)
    0x08004324   0x08004324   0x00000050   Code   RO         4659    i.rt_evt_psh        RTX_CM3.lib(rt_event.o)
    0x08004374   0x08004374   0x0000002c   Code   RO         4901    i.rt_free_box       RTX_CM3.lib(rt_membox.o)
    0x080043a0   0x080043a0   0x00000028   Code   RO         4929    i.rt_free_mem       RTX_CM3.lib(rt_memory.o)
    0x080043c8   0x080043c8   0x00000028   Code   RO         4703    i.rt_get_first      RTX_CM3.lib(rt_list.o)
    0x080043f0   0x080043f0   0x00000008   Code   RO         3876    i.rt_id2obj         RTX_CM3.lib(rt_cmsis.o)
    0x080043f8   0x080043f8   0x00000048   Code   RO         4483    i.rt_init_context   RTX_CM3.lib(rt_task.o)
    0x08004440   0x08004440   0x0000001a   Code   RO         4930    i.rt_init_mem       RTX_CM3.lib(rt_memory.o)
    0x0800445a   0x0800445a   0x00000002   PAD
    0x0800445c   0x0800445c   0x00000018   Code   RO         5001    i.rt_init_robin     RTX_CM3.lib(rt_robin.o)
    0x08004474   0x08004474   0x00000080   Code   RO         4955    i.rt_init_stack     RTX_CM3.lib(hal_cm.o)
    0x080044f4   0x080044f4   0x00000008   Code   RO         4780    i.rt_mbx_check      RTX_CM3.lib(rt_mailbox.o)
    0x080044fc   0x080044fc   0x0000001a   Code   RO         4781    i.rt_mbx_init       RTX_CM3.lib(rt_mailbox.o)
    0x08004516   0x08004516   0x00000002   PAD
    0x08004518   0x08004518   0x000000f0   Code   RO         4782    i.rt_mbx_psh        RTX_CM3.lib(rt_mailbox.o)
    0x08004608   0x08004608   0x00000098   Code   RO         4783    i.rt_mbx_send       RTX_CM3.lib(rt_mailbox.o)
    0x080046a0   0x080046a0   0x000000b4   Code   RO         4784    i.rt_mbx_wait       RTX_CM3.lib(rt_mailbox.o)
    0x08004754   0x08004754   0x00000044   Code   RO         3877    i.rt_ms2tick        RTX_CM3.lib(rt_cmsis.o)
    0x08004798   0x08004798   0x00000010   Code   RO         4869    i.rt_mut_init       RTX_CM3.lib(rt_mutex.o)
    0x080047a8   0x080047a8   0x000000d8   Code   RO         4870    i.rt_mut_release    RTX_CM3.lib(rt_mutex.o)
    0x08004880   0x08004880   0x00000078   Code   RO         4871    i.rt_mut_wait       RTX_CM3.lib(rt_mutex.o)
    0x080048f8   0x080048f8   0x0000007c   Code   RO         4570    i.rt_pop_req        RTX_CM3.lib(rt_system.o)
    0x08004974   0x08004974   0x00000020   Code   RO         4571    i.rt_psh_req        RTX_CM3.lib(rt_system.o)
    0x08004994   0x08004994   0x0000005c   Code   RO         4705    i.rt_psq_enq        RTX_CM3.lib(rt_list.o)
    0x080049f0   0x080049f0   0x00000048   Code   RO         4706    i.rt_put_dly        RTX_CM3.lib(rt_list.o)
    0x08004a38   0x08004a38   0x00000036   Code   RO         4707    i.rt_put_prio       RTX_CM3.lib(rt_list.o)
    0x08004a6e   0x08004a6e   0x00000002   PAD
    0x08004a70   0x08004a70   0x00000014   Code   RO         4708    i.rt_put_rdy_first  RTX_CM3.lib(rt_list.o)
    0x08004a84   0x08004a84   0x00000034   Code   RO         4709    i.rt_resort_prio    RTX_CM3.lib(rt_list.o)
    0x08004ab8   0x08004ab8   0x00000006   Code   RO         4956    i.rt_ret_val        RTX_CM3.lib(hal_cm.o)
    0x08004abe   0x08004abe   0x00000008   Code   RO         4957    i.rt_ret_val2       RTX_CM3.lib(hal_cm.o)
    0x08004ac6   0x08004ac6   0x00000028   Code   RO         4710    i.rt_rmv_dly        RTX_CM3.lib(rt_list.o)
    0x08004aee   0x08004aee   0x00000002   PAD
    0x08004af0   0x08004af0   0x00000030   Code   RO         4711    i.rt_rmv_list       RTX_CM3.lib(rt_list.o)
    0x08004b20   0x08004b20   0x00000034   Code   RO         4829    i.rt_sem_psh        RTX_CM3.lib(rt_semaphore.o)
    0x08004b54   0x08004b54   0x00000024   Code   RO         4573    i.rt_stk_check      RTX_CM3.lib(rt_system.o)
    0x08004b78   0x08004b78   0x00000028   Code   RO         4484    i.rt_switch_req     RTX_CM3.lib(rt_task.o)
    0x08004ba0   0x08004ba0   0x000000cc   Code   RO         4485    i.rt_sys_init       RTX_CM3.lib(rt_task.o)
    0x08004c6c   0x08004c6c   0x00000078   Code   RO         4486    i.rt_sys_start      RTX_CM3.lib(rt_task.o)
    0x08004ce4   0x08004ce4   0x00000040   Code   RO         4575    i.rt_systick        RTX_CM3.lib(rt_system.o)
    0x08004d24   0x08004d24   0x00000012   Code   RO         3878    i.rt_tid2ptcb       RTX_CM3.lib(rt_cmsis.o)
    0x08004d36   0x08004d36   0x00000002   PAD
    0x08004d38   0x08004d38   0x00000034   Code   RO         3879    i.rt_timer_insert   RTX_CM3.lib(rt_cmsis.o)
    0x08004d6c   0x08004d6c   0x0000003c   Code   RO         3880    i.rt_timer_remove   RTX_CM3.lib(rt_cmsis.o)
    0x08004da8   0x08004da8   0x00000088   Code   RO         4487    i.rt_tsk_create     RTX_CM3.lib(rt_task.o)
    0x08004e30   0x08004e30   0x0000017c   Code   RO         4488    i.rt_tsk_delete     RTX_CM3.lib(rt_task.o)
    0x08004fac   0x08004fac   0x0000007c   Code   RO         4490    i.rt_tsk_prio       RTX_CM3.lib(rt_task.o)
    0x08005028   0x08005028   0x00000010   Code   RO         4491    i.rt_tsk_self       RTX_CM3.lib(rt_task.o)
    0x08005038   0x08005038   0x00000018   Code   RO         3312    i.set_bit           tlsf.o
    0x08005050   0x08005050   0x00000070   Code   RO         3882    i.svcKernelInitialize  RTX_CM3.lib(rt_cmsis.o)
    0x080050c0   0x080050c0   0x00000048   Code   RO         3884    i.svcKernelStart    RTX_CM3.lib(rt_cmsis.o)
    0x08005108   0x08005108   0x00000042   Code   RO         3886    i.svcMailCreate     RTX_CM3.lib(rt_cmsis.o)
    0x0800514a   0x0800514a   0x00000024   Code   RO         3887    i.svcMessageCreate  RTX_CM3.lib(rt_cmsis.o)
    0x0800516e   0x0800516e   0x0000003a   Code   RO         3888    i.svcMessageGet     RTX_CM3.lib(rt_cmsis.o)
    0x080051a8   0x080051a8   0x00000036   Code   RO         3889    i.svcMessagePut     RTX_CM3.lib(rt_cmsis.o)
    0x080051de   0x080051de   0x0000001c   Code   RO         3890    i.svcMutexCreate    RTX_CM3.lib(rt_cmsis.o)
    0x080051fa   0x080051fa   0x00000022   Code   RO         3892    i.svcMutexRelease   RTX_CM3.lib(rt_cmsis.o)
    0x0800521c   0x0800521c   0x0000003a   Code   RO         3893    i.svcMutexWait      RTX_CM3.lib(rt_cmsis.o)
    0x08005256   0x08005256   0x00000002   PAD
    0x08005258   0x08005258   0x0000006c   Code   RO         3902    i.svcThreadCreate   RTX_CM3.lib(rt_cmsis.o)
    0x080052c4   0x080052c4   0x0000001c   Code   RO         3903    i.svcThreadGetId    RTX_CM3.lib(rt_cmsis.o)
    0x080052e0   0x080052e0   0x00000038   Code   RO         3906    i.svcThreadTerminate  RTX_CM3.lib(rt_cmsis.o)
    0x08005318   0x08005318   0x00000018   Code   RO         3908    i.svcTimerCall      RTX_CM3.lib(rt_cmsis.o)
    0x08005330   0x08005330   0x00000038   Code   RO         3909    i.svcTimerCreate    RTX_CM3.lib(rt_cmsis.o)
    0x08005368   0x08005368   0x00000028   Code   RO         3910    i.svcTimerDelete    RTX_CM3.lib(rt_cmsis.o)
    0x08005390   0x08005390   0x00000064   Code   RO         3911    i.svcTimerStart     RTX_CM3.lib(rt_cmsis.o)
    0x080053f4   0x080053f4   0x00000058   Code   RO         3913    i.sysMailAlloc      RTX_CM3.lib(rt_cmsis.o)
    0x0800544c   0x0800544c   0x00000060   Code   RO         3914    i.sysMailFree       RTX_CM3.lib(rt_cmsis.o)
    0x080054ac   0x080054ac   0x0000005c   Code   RO         3917    i.sysTimerTick      RTX_CM3.lib(rt_cmsis.o)
    0x08005508   0x08005508   0x00000040   Code   RO         3314    i.tlsf_free         tlsf.o
    0x08005548   0x08005548   0x00000084   Code   RO         3315    i.tlsf_malloc       tlsf.o
    0x080055cc   0x080055cc   0x00000016   Code   RO         3046    i.vwm_clear_wnd_timer  vmsgexec.o
    0x080055e2   0x080055e2   0x00000002   PAD
    0x080055e4   0x080055e4   0x00000078   Code   RO         3047    i.vwm_create_timer  vmsgexec.o
    0x0800565c   0x0800565c   0x0000005c   Code   RO         3049    i.vwm_delete_timer  vmsgexec.o
    0x080056b8   0x080056b8   0x00000018   Code   RO         3050    i.vwm_find_timer_by_wnd  vmsgexec.o
    0x080056d0   0x080056d0   0x00000030   Code   RO         3052    i.vwm_send_message  vmsgexec.o
    0x08005700   0x08005700   0x0000000e   Code   RO         3055    i.vwm_start_timer   vmsgexec.o
    0x0800570e   0x0800570e   0x00000002   PAD
    0x08005710   0x08005710   0x00000010   Code   RO         3056    i.vwm_timer_init    vmsgexec.o
    0x08005720   0x08005720   0x00000005   Data   RO           20    .constdata          main.o
    0x08005725   0x08005725   0x00000012   Data   RO         1508    .constdata          stm32f1xx_hal_rcc.o
    0x08005737   0x08005737   0x00000010   Data   RO         2662    .constdata          system_stm32f1xx.o
    0x08005747   0x08005747   0x00000008   Data   RO         2663    .constdata          system_stm32f1xx.o
    0x0800574f   0x0800574f   0x00000001   PAD
    0x08005750   0x08005750   0x0000000c   Data   RO         3060    .constdata          vmsgexec.o
    0x0800575c   0x0800575c   0x00000031   Data   RO         3263    .constdata          app.o
    0x0800578d   0x0800578d   0x00000003   PAD
    0x08005790   0x08005790   0x00000404   Data   RO         3319    .constdata          tlsf.o
    0x08005b94   0x08005b94   0x000000e2   Data   RO         3471    .constdata          elog.o
    0x08005c76   0x08005c76   0x00000023   Data   RO         3626    .constdata          elog_utils.o
    0x08005c99   0x08005c99   0x00000001   PAD
    0x08005c9a   0x08005c9a   0x00000002   Data   RO         3774    .constdata          rtx_conf_cm.o
    0x08005c9c   0x08005c9c   0x00000004   Data   RO         3775    .constdata          rtx_conf_cm.o
    0x08005ca0   0x08005ca0   0x00000004   Data   RO         3776    .constdata          rtx_conf_cm.o
    0x08005ca4   0x08005ca4   0x00000004   Data   RO         3780    .constdata          rtx_conf_cm.o
    0x08005ca8   0x08005ca8   0x00000001   Data   RO         3781    .constdata          rtx_conf_cm.o
    0x08005ca9   0x08005ca9   0x00000003   PAD
    0x08005cac   0x08005cac   0x00000020   Data   RO         3782    .constdata          rtx_conf_cm.o
    0x08005ccc   0x08005ccc   0x00000002   Data   RO         3783    .constdata          rtx_conf_cm.o
    0x08005cce   0x08005cce   0x00000002   PAD
    0x08005cd0   0x08005cd0   0x00000004   Data   RO         3784    .constdata          rtx_conf_cm.o
    0x08005cd4   0x08005cd4   0x00000004   Data   RO         3785    .constdata          rtx_conf_cm.o
    0x08005cd8   0x08005cd8   0x00000001   Data   RO         3786    .constdata          rtx_conf_cm.o
    0x08005cd9   0x08005cd9   0x00000003   PAD
    0x08005cdc   0x08005cdc   0x00000010   Data   RO         3787    .constdata          rtx_conf_cm.o
    0x08005cec   0x08005cec   0x00000008   Data   RO         3788    .constdata          rtx_conf_cm.o
    0x08005cf4   0x08005cf4   0x00000002   Data   RO         3789    .constdata          rtx_conf_cm.o
    0x08005cf6   0x08005cf6   0x00000002   PAD
    0x08005cf8   0x08005cf8   0x00000047   Data   RO         3472    .conststring        elog.o
    0x08005d3f   0x08005d3f   0x00000001   PAD
    0x08005d40   0x08005d40   0x00000020   Data   RO         5356    Region$$Table       anon$$obj.o


    Execution Region RW_IRAM1 (Exec base: 0x20000000, Load base: 0x08005d60, Size: 0x00009300, Max: 0x00010000, ABSOLUTE)

    Exec Addr    Load Addr    Size         Type   Attr      Idx    E Section Name        Object

    0x20000000   0x08005d60   0x0000000c   Data   RW         1345    .data               stm32f1xx_hal.o
    0x2000000c   0x08005d6c   0x00000004   Data   RW         2664    .data               system_stm32f1xx.o
    0x20000010   0x08005d70   0x00000008   Data   RW         3062    .data               vmsgexec.o
    0x20000018   0x08005d78   0x00000014   Data   RW         3063    .data               vmsgexec.o
    0x2000002c   0x08005d8c   0x0000000c   Data   RW         3320    .data               tlsf.o
    0x20000038   0x08005d98   0x00000034   Data   RW         3473    .data               elog.o
    0x2000006c   0x08005dcc   0x00000004   Data   RW         3791    .data               rtx_conf_cm.o
    0x20000070   0x08005dd0   0x00000004   Data   RW         3792    .data               rtx_conf_cm.o
    0x20000074   0x08005dd4   0x00000004   Data   RW         3793    .data               rtx_conf_cm.o
    0x20000078   0x08005dd8   0x00000008   Data   RW         3920    .data               RTX_CM3.lib(rt_cmsis.o)
    0x20000080   0x08005de0   0x00000004   Data   RW         4452    .data               RTX_CM3.lib(rt_time.o)
    0x20000084   0x08005de4   0x00000008   Data   RW         4493    .data               RTX_CM3.lib(rt_task.o)
    0x2000008c   0x08005dec   0x00000008   Data   RW         4578    .data               RTX_CM3.lib(rt_system.o)
    0x20000094   0x08005df4   0x00000001   Data   RW         4958    .data               RTX_CM3.lib(hal_cm.o)
    0x20000095   0x08005df5   0x00000003   PAD
    0x20000098   0x08005df8   0x00000008   Data   RW         5002    .data               RTX_CM3.lib(rt_robin.o)
    0x200000a0   0x08005e00   0x00000004   Data   RW         5334    .data               mc_w.l(stdout.o)
    0x200000a4        -       0x000000d8   Zero   RW           19    .bss                main.o
    0x2000017c        -       0x0000000c   Zero   RW         2933    .bss                vkey.o
    0x20000188        -       0x00000110   Zero   RW         3057    .bss                vmsgexec.o
    0x20000298        -       0x0000050c   Zero   RW         3058    .bss                vmsgexec.o
    0x200007a4        -       0x00000010   Zero   RW         3262    .bss                app.o
    0x200007b4        -       0x00000010   Zero   RW         3317    .bss                tlsf.o
    0x200007c4        -       0x00006400   Zero   RW         3318    .bss                tlsf.o
    0x20006bc4        -       0x000004f8   Zero   RW         3470    .bss                elog.o
    0x200070bc        -       0x00000050   Zero   RW         3768    .bss                rtx_conf_cm.o
    0x2000710c        -       0x00000144   Zero   RW         3769    .bss                rtx_conf_cm.o
    0x20007250        -       0x00001410   Zero   RW         3770    .bss                rtx_conf_cm.o
    0x20008660        -       0x00000620   Zero   RW         3771    .bss                rtx_conf_cm.o
    0x20008c80        -       0x00000204   Zero   RW         3772    .bss                rtx_conf_cm.o
    0x20008e84        -       0x00000018   Zero   RW         3773    .bss                rtx_conf_cm.o
    0x20008e9c        -       0x00000034   Zero   RW         4492    .bss                RTX_CM3.lib(rt_task.o)
    0x20008ed0        -       0x00000030   Zero   RW         4712    .bss                RTX_CM3.lib(rt_list.o)
    0x20008f00        -       0x00000400   Zero   RW            1    STACK               startup_stm32f103xe.o


==============================================================================

Image component sizes


      Code (inc. data)   RO Data    RW Data    ZI Data      Debug   Object Name

       732        296         49          0         16       2101   app.o
         0          0          0          0          0       1352   bsp.o
       466         26          0          0          0       4589   dht11.o
      2016        714        297         52       1272      15717   elog.o
        42         16          0          0          0       3209   elog_port.o
       240         92         35          0          0       2633   elog_utils.o
       654        104          5          0        216     498551   main.o
        12          6          0          0          0        410   os_port.o
        28          6         84         12       7648       7576   rtx_conf_cm.o
        36          8        304          0       1024        784   startup_stm32f103xe.o
       136         18          0         12          0       5409   stm32f1xx_hal.o
       198         14          0          0          0      28815   stm32f1xx_hal_cortex.o
       374          8          0          0          0       1775   stm32f1xx_hal_dma.o
       540         42          0          0          0       4048   stm32f1xx_hal_gpio.o
       332         40          0          0          0       2184   stm32f1xx_hal_msp.o
      1240         84         18          0          0       4992   stm32f1xx_hal_rcc.o
       694         42          0          0          0       7128   stm32f1xx_hal_tim.o
       124         20          0          0          0       1316   stm32f1xx_hal_tim_ex.o
      1474         10          0          0          0       9764   stm32f1xx_hal_uart.o
        36         12          0          0          0       3297   stm32f1xx_it.o
         2          0         24          4          0       1059   system_stm32f1xx.o
      1480        178       1028         12      25616      40839   tlsf.o
       228         14          0          0         12       3386   vkey.o
       698         58         12         28       1564       9366   vmsgexec.o

    ----------------------------------------------------------------------
     11802       1808       1904        120      37368     660300   Object Totals
         0          0         32          0          0          0   (incl. Generated)
        20          0         16          0          0          0   (incl. Padding)

    ----------------------------------------------------------------------

      Code (inc. data)   RO Data    RW Data    ZI Data      Debug   Library Member Name

       238         24          0          1          0       3244   hal_cm.o
       304         36          0          0          0        756   hal_cm3.o
      2184        218          0          8          0      48234   rt_cmsis.o
        80          4          0          0          0        649   rt_event.o
       530         34          0          0         48       8157   rt_list.o
       706         14          0          0          0       4719   rt_mailbox.o
       140          0          0          0          0       1889   rt_membox.o
       128          0          0          0          0       2267   rt_memory.o
       352         14          0          0          0       2073   rt_mutex.o
        96         22          0          8          0       1134   rt_robin.o
        52          4          0          0          0        565   rt_semaphore.o
       298         52          0          8          0       6139   rt_system.o
      1216        174          0          8         52       9537   rt_task.o
         0          0          0          4          0        206   rt_time.o
         4          4          0          0          0        196   svc_table.o
         0          0          0          0          0          0   entry.o
         0          0          0          0          0          0   entry10a.o
         0          0          0          0          0          0   entry11a.o
         4          0          0          0          0          0   entry12b.o
         8          4          0          0          0          0   entry2.o
         4          0          0          0          0          0   entry5.o
         0          0          0          0          0          0   entry7b.o
         0          0          0          0          0          0   entry8b.o
        30          0          0          0          0          0   handlers.o
        36          8          0          0          0         68   init.o
         0          0          0          0          0          0   iusefp.o
        30          0          0          0          0         68   llshl.o
        36          0          0          0          0         68   llsshr.o
        32          0          0          0          0         68   llushr.o
        36          0          0          0          0        108   memseta.o
      2344        100          0          0          0        700   printfa.o
         0          0          0          4          0          0   stdout.o
        14          0          0          0          0         68   strlen.o
        30          0          0          0          0         80   strncmp.o
        36          0          0          0          0         80   strstr.o
        44          0          0          0          0         80   uidiv.o
        98          0          0          0          0         92   uldiv.o
        48          0          0          0          0         68   cdrcmple.o
       334          0          0          0          0        148   dadd.o
       222          0          0          0          0        100   ddiv.o
       186          0          0          0          0        176   depilogue.o
        48          0          0          0          0         68   dfixul.o
       228          0          0          0          0         96   dmul.o

    ----------------------------------------------------------------------
     10198        712          0         44        100      91901   Library Totals
        22          0          0          3          0          0   (incl. Padding)

    ----------------------------------------------------------------------

      Code (inc. data)   RO Data    RW Data    ZI Data      Debug   Library Name

      6328        600          0         37        100      89765   RTX_CM3.lib
      2782        112          0          4          0       1480   mc_w.l
      1066          0          0          0          0        656   mf_w.l

    ----------------------------------------------------------------------
     10198        712          0         44        100      91901   Library Totals

    ----------------------------------------------------------------------

==============================================================================


      Code (inc. data)   RO Data    RW Data    ZI Data      Debug   

     22000       2520       1904        164      37468     740185   Grand Totals
     22000       2520       1904        164      37468     740185   ELF Image Totals
     22000       2520       1904        164          0          0   ROM Totals

==============================================================================

    Total RO  Size (Code + RO Data)                23904 (  23.34kB)
    Total RW  Size (RW Data + ZI Data)             37632 (  36.75kB)
    Total ROM Size (Code + RO Data + RW Data)      24068 (  23.50kB)

==============================================================================

